
tests/upstream/binaries/addi.elf:     file format elf32-littleriscv


Disassembly of section .text.init:

00000000 <_start>:
   0:	00000093          	li	ra,0
   4:	00000113          	li	sp,0
   8:	00000193          	li	gp,0
   c:	00000213          	li	tp,0
  10:	00000293          	li	t0,0
  14:	00000313          	li	t1,0
  18:	00000393          	li	t2,0
  1c:	00000413          	li	s0,0
  20:	00000493          	li	s1,0
  24:	00000513          	li	a0,0
  28:	00000593          	li	a1,0
  2c:	00000613          	li	a2,0
  30:	00000693          	li	a3,0
  34:	00000713          	li	a4,0
  38:	00000793          	li	a5,0
  3c:	00000813          	li	a6,0
  40:	00000893          	li	a7,0
  44:	00000913          	li	s2,0
  48:	00000993          	li	s3,0
  4c:	00000a13          	li	s4,0
  50:	00000a93          	li	s5,0
  54:	00000b13          	li	s6,0
  58:	00000b93          	li	s7,0
  5c:	00000c13          	li	s8,0
  60:	00000c93          	li	s9,0
  64:	00000d13          	li	s10,0
  68:	00000d93          	li	s11,0
  6c:	00000e13          	li	t3,0
  70:	00000e93          	li	t4,0
  74:	00000f13          	li	t5,0
  78:	00000f93          	li	t6,0
  7c:	00000193          	li	gp,0
  80:	00100513          	li	a0,1
  84:	01f51513          	slli	a0,a0,0x1f
  88:	00054c63          	bltz	a0,a0 <test_2>
  8c:	0ff0000f          	fence
  90:	00100193          	li	gp,1
  94:	05d00893          	li	a7,93
  98:	00000513          	li	a0,0
  9c:	00000073          	ecall

000000a0 <test_2>:
  a0:	00200193          	li	gp,2
  a4:	00000093          	li	ra,0
  a8:	00008713          	mv	a4,ra
  ac:	00000393          	li	t2,0
  b0:	26771c63          	bne	a4,t2,328 <fail>

000000b4 <test_3>:
  b4:	00300193          	li	gp,3
  b8:	00100093          	li	ra,1
  bc:	00108713          	addi	a4,ra,1
  c0:	00200393          	li	t2,2
  c4:	26771263          	bne	a4,t2,328 <fail>

000000c8 <test_4>:
  c8:	00400193          	li	gp,4
  cc:	00300093          	li	ra,3
  d0:	00708713          	addi	a4,ra,7
  d4:	00a00393          	li	t2,10
  d8:	24771863          	bne	a4,t2,328 <fail>

000000dc <test_5>:
  dc:	00500193          	li	gp,5
  e0:	00000093          	li	ra,0
  e4:	80008713          	addi	a4,ra,-2048
  e8:	80000393          	li	t2,-2048
  ec:	22771e63          	bne	a4,t2,328 <fail>

000000f0 <test_6>:
  f0:	00600193          	li	gp,6
  f4:	800000b7          	lui	ra,0x80000
  f8:	00008713          	mv	a4,ra
  fc:	800003b7          	lui	t2,0x80000
 100:	22771463          	bne	a4,t2,328 <fail>

00000104 <test_7>:
 104:	00700193          	li	gp,7
 108:	800000b7          	lui	ra,0x80000
 10c:	80008713          	addi	a4,ra,-2048 # 7ffff800 <_end+0x7ffff430>
 110:	800003b7          	lui	t2,0x80000
 114:	80038393          	addi	t2,t2,-2048 # 7ffff800 <_end+0x7ffff430>
 118:	20771863          	bne	a4,t2,328 <fail>

0000011c <test_8>:
 11c:	00800193          	li	gp,8
 120:	00000093          	li	ra,0
 124:	7ff08713          	addi	a4,ra,2047
 128:	7ff00393          	li	t2,2047
 12c:	1e771e63          	bne	a4,t2,328 <fail>

00000130 <test_9>:
 130:	00900193          	li	gp,9
 134:	800000b7          	lui	ra,0x80000
 138:	fff08093          	addi	ra,ra,-1 # 7fffffff <_end+0x7ffffc2f>
 13c:	00008713          	mv	a4,ra
 140:	800003b7          	lui	t2,0x80000
 144:	fff38393          	addi	t2,t2,-1 # 7fffffff <_end+0x7ffffc2f>
 148:	1e771063          	bne	a4,t2,328 <fail>

0000014c <test_10>:
 14c:	00a00193          	li	gp,10
 150:	800000b7          	lui	ra,0x80000
 154:	fff08093          	addi	ra,ra,-1 # 7fffffff <_end+0x7ffffc2f>
 158:	7ff08713          	addi	a4,ra,2047
 15c:	800003b7          	lui	t2,0x80000
 160:	7fe38393          	addi	t2,t2,2046 # 800007fe <_end+0x8000042e>
 164:	1c771263          	bne	a4,t2,328 <fail>

00000168 <test_11>:
 168:	00b00193          	li	gp,11
 16c:	800000b7          	lui	ra,0x80000
 170:	7ff08713          	addi	a4,ra,2047 # 800007ff <_end+0x8000042f>
 174:	800003b7          	lui	t2,0x80000
 178:	7ff38393          	addi	t2,t2,2047 # 800007ff <_end+0x8000042f>
 17c:	1a771663          	bne	a4,t2,328 <fail>

00000180 <test_12>:
 180:	00c00193          	li	gp,12
 184:	800000b7          	lui	ra,0x80000
 188:	fff08093          	addi	ra,ra,-1 # 7fffffff <_end+0x7ffffc2f>
 18c:	80008713          	addi	a4,ra,-2048
 190:	7ffff3b7          	lui	t2,0x7ffff
 194:	7ff38393          	addi	t2,t2,2047 # 7ffff7ff <_end+0x7ffff42f>
 198:	18771863          	bne	a4,t2,328 <fail>

0000019c <test_13>:
 19c:	00d00193          	li	gp,13
 1a0:	00000093          	li	ra,0
 1a4:	fff08713          	addi	a4,ra,-1
 1a8:	fff00393          	li	t2,-1
 1ac:	16771e63          	bne	a4,t2,328 <fail>

000001b0 <test_14>:
 1b0:	00e00193          	li	gp,14
 1b4:	fff00093          	li	ra,-1
 1b8:	00108713          	addi	a4,ra,1
 1bc:	00000393          	li	t2,0
 1c0:	16771463          	bne	a4,t2,328 <fail>

000001c4 <test_15>:
 1c4:	00f00193          	li	gp,15
 1c8:	fff00093          	li	ra,-1
 1cc:	fff08713          	addi	a4,ra,-1
 1d0:	ffe00393          	li	t2,-2
 1d4:	14771a63          	bne	a4,t2,328 <fail>

000001d8 <test_16>:
 1d8:	01000193          	li	gp,16
 1dc:	800000b7          	lui	ra,0x80000
 1e0:	fff08093          	addi	ra,ra,-1 # 7fffffff <_end+0x7ffffc2f>
 1e4:	00108713          	addi	a4,ra,1
 1e8:	800003b7          	lui	t2,0x80000
 1ec:	12771e63          	bne	a4,t2,328 <fail>

000001f0 <test_17>:
 1f0:	01100193          	li	gp,17
 1f4:	00d00093          	li	ra,13
 1f8:	00b08093          	addi	ra,ra,11
 1fc:	01800393          	li	t2,24
 200:	12709463          	bne	ra,t2,328 <fail>

00000204 <test_18>:
 204:	01200193          	li	gp,18
 208:	00000213          	li	tp,0
 20c:	00d00093          	li	ra,13
 210:	00b08713          	addi	a4,ra,11
 214:	00070313          	mv	t1,a4
 218:	00120213          	addi	tp,tp,1 # 1 <_start+0x1>
 21c:	00200293          	li	t0,2
 220:	fe5216e3          	bne	tp,t0,20c <test_18+0x8>
 224:	01800393          	li	t2,24
 228:	10731063          	bne	t1,t2,328 <fail>

0000022c <test_19>:
 22c:	01300193          	li	gp,19
 230:	00000213          	li	tp,0
 234:	00d00093          	li	ra,13
 238:	00a08713          	addi	a4,ra,10
 23c:	00000013          	nop
 240:	00070313          	mv	t1,a4
 244:	00120213          	addi	tp,tp,1 # 1 <_start+0x1>
 248:	00200293          	li	t0,2
 24c:	fe5214e3          	bne	tp,t0,234 <test_19+0x8>
 250:	01700393          	li	t2,23
 254:	0c731a63          	bne	t1,t2,328 <fail>

00000258 <test_20>:
 258:	01400193          	li	gp,20
 25c:	00000213          	li	tp,0
 260:	00d00093          	li	ra,13
 264:	00908713          	addi	a4,ra,9
 268:	00000013          	nop
 26c:	00000013          	nop
 270:	00070313          	mv	t1,a4
 274:	00120213          	addi	tp,tp,1 # 1 <_start+0x1>
 278:	00200293          	li	t0,2
 27c:	fe5212e3          	bne	tp,t0,260 <test_20+0x8>
 280:	01600393          	li	t2,22
 284:	0a731263          	bne	t1,t2,328 <fail>

00000288 <test_21>:
 288:	01500193          	li	gp,21
 28c:	00000213          	li	tp,0
 290:	00d00093          	li	ra,13
 294:	00b08713          	addi	a4,ra,11
 298:	00120213          	addi	tp,tp,1 # 1 <_start+0x1>
 29c:	00200293          	li	t0,2
 2a0:	fe5218e3          	bne	tp,t0,290 <test_21+0x8>
 2a4:	01800393          	li	t2,24
 2a8:	08771063          	bne	a4,t2,328 <fail>

000002ac <test_22>:
 2ac:	01600193          	li	gp,22
 2b0:	00000213          	li	tp,0
 2b4:	00d00093          	li	ra,13
 2b8:	00000013          	nop
 2bc:	00a08713          	addi	a4,ra,10
 2c0:	00120213          	addi	tp,tp,1 # 1 <_start+0x1>
 2c4:	00200293          	li	t0,2
 2c8:	fe5216e3          	bne	tp,t0,2b4 <test_22+0x8>
 2cc:	01700393          	li	t2,23
 2d0:	04771c63          	bne	a4,t2,328 <fail>

000002d4 <test_23>:
 2d4:	01700193          	li	gp,23
 2d8:	00000213          	li	tp,0
 2dc:	00d00093          	li	ra,13
 2e0:	00000013          	nop
 2e4:	00000013          	nop
 2e8:	00908713          	addi	a4,ra,9
 2ec:	00120213          	addi	tp,tp,1 # 1 <_start+0x1>
 2f0:	00200293          	li	t0,2
 2f4:	fe5214e3          	bne	tp,t0,2dc <test_23+0x8>
 2f8:	01600393          	li	t2,22
 2fc:	02771663          	bne	a4,t2,328 <fail>

00000300 <test_24>:
 300:	01800193          	li	gp,24
 304:	02000093          	li	ra,32
 308:	02000393          	li	t2,32
 30c:	00709e63          	bne	ra,t2,328 <fail>

00000310 <test_25>:
 310:	01900193          	li	gp,25
 314:	02100093          	li	ra,33
 318:	03208013          	addi	zero,ra,50
 31c:	00000393          	li	t2,0
 320:	00701463          	bne	zero,t2,328 <fail>
 324:	02301063          	bne	zero,gp,344 <pass>

00000328 <fail>:
 328:	0ff0000f          	fence
 32c:	00018063          	beqz	gp,32c <fail+0x4>
 330:	00119193          	slli	gp,gp,0x1
 334:	0011e193          	ori	gp,gp,1
 338:	05d00893          	li	a7,93
 33c:	00018513          	mv	a0,gp
 340:	00000073          	ecall

00000344 <pass>:
 344:	0ff0000f          	fence
 348:	00100193          	li	gp,1
 34c:	05d00893          	li	a7,93
 350:	00000513          	li	a0,0
 354:	00000073          	ecall
 358:	c0001073          	unimp
