
tests/upstream/binaries/and.elf:     file format elf32-littleriscv


Disassembly of section .text.init:

00000000 <_start>:
   0:	00000093          	li	ra,0
   4:	00000113          	li	sp,0
   8:	00000193          	li	gp,0
   c:	00000213          	li	tp,0
  10:	00000293          	li	t0,0
  14:	00000313          	li	t1,0
  18:	00000393          	li	t2,0
  1c:	00000413          	li	s0,0
  20:	00000493          	li	s1,0
  24:	00000513          	li	a0,0
  28:	00000593          	li	a1,0
  2c:	00000613          	li	a2,0
  30:	00000693          	li	a3,0
  34:	00000713          	li	a4,0
  38:	00000793          	li	a5,0
  3c:	00000813          	li	a6,0
  40:	00000893          	li	a7,0
  44:	00000913          	li	s2,0
  48:	00000993          	li	s3,0
  4c:	00000a13          	li	s4,0
  50:	00000a93          	li	s5,0
  54:	00000b13          	li	s6,0
  58:	00000b93          	li	s7,0
  5c:	00000c13          	li	s8,0
  60:	00000c93          	li	s9,0
  64:	00000d13          	li	s10,0
  68:	00000d93          	li	s11,0
  6c:	00000e13          	li	t3,0
  70:	00000e93          	li	t4,0
  74:	00000f13          	li	t5,0
  78:	00000f93          	li	t6,0
  7c:	00000193          	li	gp,0
  80:	00100513          	li	a0,1
  84:	01f51513          	slli	a0,a0,0x1f
  88:	00054c63          	bltz	a0,a0 <test_2>
  8c:	0ff0000f          	fence
  90:	00100193          	li	gp,1
  94:	05d00893          	li	a7,93
  98:	00000513          	li	a0,0
  9c:	00000073          	ecall

000000a0 <test_2>:
  a0:	00200193          	li	gp,2
  a4:	ff0100b7          	lui	ra,0xff010
  a8:	f0008093          	addi	ra,ra,-256 # ff00ff00 <_end+0xff00f8f0>
  ac:	0f0f1137          	lui	sp,0xf0f1
  b0:	f0f10113          	addi	sp,sp,-241 # f0f0f0f <_end+0xf0f08ff>
  b4:	0020f733          	and	a4,ra,sp
  b8:	0f0013b7          	lui	t2,0xf001
  bc:	f0038393          	addi	t2,t2,-256 # f000f00 <_end+0xf0008f0>
  c0:	48771c63          	bne	a4,t2,558 <fail>

000000c4 <test_3>:
  c4:	00300193          	li	gp,3
  c8:	0ff010b7          	lui	ra,0xff01
  cc:	ff008093          	addi	ra,ra,-16 # ff00ff0 <_end+0xff009e0>
  d0:	f0f0f137          	lui	sp,0xf0f0f
  d4:	0f010113          	addi	sp,sp,240 # f0f0f0f0 <_end+0xf0f0eae0>
  d8:	0020f733          	and	a4,ra,sp
  dc:	00f003b7          	lui	t2,0xf00
  e0:	0f038393          	addi	t2,t2,240 # f000f0 <_end+0xeffae0>
  e4:	46771a63          	bne	a4,t2,558 <fail>

000000e8 <test_4>:
  e8:	00400193          	li	gp,4
  ec:	00ff00b7          	lui	ra,0xff0
  f0:	0ff08093          	addi	ra,ra,255 # ff00ff <_end+0xfefaef>
  f4:	0f0f1137          	lui	sp,0xf0f1
  f8:	f0f10113          	addi	sp,sp,-241 # f0f0f0f <_end+0xf0f08ff>
  fc:	0020f733          	and	a4,ra,sp
 100:	000f03b7          	lui	t2,0xf0
 104:	00f38393          	addi	t2,t2,15 # f000f <_end+0xef9ff>
 108:	44771863          	bne	a4,t2,558 <fail>

0000010c <test_5>:
 10c:	00500193          	li	gp,5
 110:	f00ff0b7          	lui	ra,0xf00ff
 114:	00f08093          	addi	ra,ra,15 # f00ff00f <_end+0xf00fe9ff>
 118:	f0f0f137          	lui	sp,0xf0f0f
 11c:	0f010113          	addi	sp,sp,240 # f0f0f0f0 <_end+0xf0f0eae0>
 120:	0020f733          	and	a4,ra,sp
 124:	f000f3b7          	lui	t2,0xf000f
 128:	42771863          	bne	a4,t2,558 <fail>

0000012c <test_6>:
 12c:	00600193          	li	gp,6
 130:	ff0100b7          	lui	ra,0xff010
 134:	f0008093          	addi	ra,ra,-256 # ff00ff00 <_end+0xff00f8f0>
 138:	0f0f1137          	lui	sp,0xf0f1
 13c:	f0f10113          	addi	sp,sp,-241 # f0f0f0f <_end+0xf0f08ff>
 140:	0020f0b3          	and	ra,ra,sp
 144:	0f0013b7          	lui	t2,0xf001
 148:	f0038393          	addi	t2,t2,-256 # f000f00 <_end+0xf0008f0>
 14c:	40709663          	bne	ra,t2,558 <fail>

00000150 <test_7>:
 150:	00700193          	li	gp,7
 154:	0ff010b7          	lui	ra,0xff01
 158:	ff008093          	addi	ra,ra,-16 # ff00ff0 <_end+0xff009e0>
 15c:	f0f0f137          	lui	sp,0xf0f0f
 160:	0f010113          	addi	sp,sp,240 # f0f0f0f0 <_end+0xf0f0eae0>
 164:	0020f133          	and	sp,ra,sp
 168:	00f003b7          	lui	t2,0xf00
 16c:	0f038393          	addi	t2,t2,240 # f000f0 <_end+0xeffae0>
 170:	3e711463          	bne	sp,t2,558 <fail>

00000174 <test_8>:
 174:	00800193          	li	gp,8
 178:	ff0100b7          	lui	ra,0xff010
 17c:	f0008093          	addi	ra,ra,-256 # ff00ff00 <_end+0xff00f8f0>
 180:	0010f0b3          	and	ra,ra,ra
 184:	ff0103b7          	lui	t2,0xff010
 188:	f0038393          	addi	t2,t2,-256 # ff00ff00 <_end+0xff00f8f0>
 18c:	3c709663          	bne	ra,t2,558 <fail>

00000190 <test_9>:
 190:	00900193          	li	gp,9
 194:	00000213          	li	tp,0
 198:	ff0100b7          	lui	ra,0xff010
 19c:	f0008093          	addi	ra,ra,-256 # ff00ff00 <_end+0xff00f8f0>
 1a0:	0f0f1137          	lui	sp,0xf0f1
 1a4:	f0f10113          	addi	sp,sp,-241 # f0f0f0f <_end+0xf0f08ff>
 1a8:	0020f733          	and	a4,ra,sp
 1ac:	00070313          	mv	t1,a4
 1b0:	00120213          	addi	tp,tp,1 # 1 <_start+0x1>
 1b4:	00200293          	li	t0,2
 1b8:	fe5210e3          	bne	tp,t0,198 <test_9+0x8>
 1bc:	0f0013b7          	lui	t2,0xf001
 1c0:	f0038393          	addi	t2,t2,-256 # f000f00 <_end+0xf0008f0>
 1c4:	38731a63          	bne	t1,t2,558 <fail>

000001c8 <test_10>:
 1c8:	00a00193          	li	gp,10
 1cc:	00000213          	li	tp,0
 1d0:	0ff010b7          	lui	ra,0xff01
 1d4:	ff008093          	addi	ra,ra,-16 # ff00ff0 <_end+0xff009e0>
 1d8:	f0f0f137          	lui	sp,0xf0f0f
 1dc:	0f010113          	addi	sp,sp,240 # f0f0f0f0 <_end+0xf0f0eae0>
 1e0:	0020f733          	and	a4,ra,sp
 1e4:	00000013          	nop
 1e8:	00070313          	mv	t1,a4
 1ec:	00120213          	addi	tp,tp,1 # 1 <_start+0x1>
 1f0:	00200293          	li	t0,2
 1f4:	fc521ee3          	bne	tp,t0,1d0 <test_10+0x8>
 1f8:	00f003b7          	lui	t2,0xf00
 1fc:	0f038393          	addi	t2,t2,240 # f000f0 <_end+0xeffae0>
 200:	34731c63          	bne	t1,t2,558 <fail>

00000204 <test_11>:
 204:	00b00193          	li	gp,11
 208:	00000213          	li	tp,0
 20c:	00ff00b7          	lui	ra,0xff0
 210:	0ff08093          	addi	ra,ra,255 # ff00ff <_end+0xfefaef>
 214:	0f0f1137          	lui	sp,0xf0f1
 218:	f0f10113          	addi	sp,sp,-241 # f0f0f0f <_end+0xf0f08ff>
 21c:	0020f733          	and	a4,ra,sp
 220:	00000013          	nop
 224:	00000013          	nop
 228:	00070313          	mv	t1,a4
 22c:	00120213          	addi	tp,tp,1 # 1 <_start+0x1>
 230:	00200293          	li	t0,2
 234:	fc521ce3          	bne	tp,t0,20c <test_11+0x8>
 238:	000f03b7          	lui	t2,0xf0
 23c:	00f38393          	addi	t2,t2,15 # f000f <_end+0xef9ff>
 240:	30731c63          	bne	t1,t2,558 <fail>

00000244 <test_12>:
 244:	00c00193          	li	gp,12
 248:	00000213          	li	tp,0
 24c:	ff0100b7          	lui	ra,0xff010
 250:	f0008093          	addi	ra,ra,-256 # ff00ff00 <_end+0xff00f8f0>
 254:	0f0f1137          	lui	sp,0xf0f1
 258:	f0f10113          	addi	sp,sp,-241 # f0f0f0f <_end+0xf0f08ff>
 25c:	0020f733          	and	a4,ra,sp
 260:	00120213          	addi	tp,tp,1 # 1 <_start+0x1>
 264:	00200293          	li	t0,2
 268:	fe5212e3          	bne	tp,t0,24c <test_12+0x8>
 26c:	0f0013b7          	lui	t2,0xf001
 270:	f0038393          	addi	t2,t2,-256 # f000f00 <_end+0xf0008f0>
 274:	2e771263          	bne	a4,t2,558 <fail>

00000278 <test_13>:
 278:	00d00193          	li	gp,13
 27c:	00000213          	li	tp,0
 280:	0ff010b7          	lui	ra,0xff01
 284:	ff008093          	addi	ra,ra,-16 # ff00ff0 <_end+0xff009e0>
 288:	f0f0f137          	lui	sp,0xf0f0f
 28c:	0f010113          	addi	sp,sp,240 # f0f0f0f0 <_end+0xf0f0eae0>
 290:	00000013          	nop
 294:	0020f733          	and	a4,ra,sp
 298:	00120213          	addi	tp,tp,1 # 1 <_start+0x1>
 29c:	00200293          	li	t0,2
 2a0:	fe5210e3          	bne	tp,t0,280 <test_13+0x8>
 2a4:	00f003b7          	lui	t2,0xf00
 2a8:	0f038393          	addi	t2,t2,240 # f000f0 <_end+0xeffae0>
 2ac:	2a771663          	bne	a4,t2,558 <fail>

000002b0 <test_14>:
 2b0:	00e00193          	li	gp,14
 2b4:	00000213          	li	tp,0
 2b8:	00ff00b7          	lui	ra,0xff0
 2bc:	0ff08093          	addi	ra,ra,255 # ff00ff <_end+0xfefaef>
 2c0:	0f0f1137          	lui	sp,0xf0f1
 2c4:	f0f10113          	addi	sp,sp,-241 # f0f0f0f <_end+0xf0f08ff>
 2c8:	00000013          	nop
 2cc:	00000013          	nop
 2d0:	0020f733          	and	a4,ra,sp
 2d4:	00120213          	addi	tp,tp,1 # 1 <_start+0x1>
 2d8:	00200293          	li	t0,2
 2dc:	fc521ee3          	bne	tp,t0,2b8 <test_14+0x8>
 2e0:	000f03b7          	lui	t2,0xf0
 2e4:	00f38393          	addi	t2,t2,15 # f000f <_end+0xef9ff>
 2e8:	26771863          	bne	a4,t2,558 <fail>

000002ec <test_15>:
 2ec:	00f00193          	li	gp,15
 2f0:	00000213          	li	tp,0
 2f4:	ff0100b7          	lui	ra,0xff010
 2f8:	f0008093          	addi	ra,ra,-256 # ff00ff00 <_end+0xff00f8f0>
 2fc:	00000013          	nop
 300:	0f0f1137          	lui	sp,0xf0f1
 304:	f0f10113          	addi	sp,sp,-241 # f0f0f0f <_end+0xf0f08ff>
 308:	0020f733          	and	a4,ra,sp
 30c:	00120213          	addi	tp,tp,1 # 1 <_start+0x1>
 310:	00200293          	li	t0,2
 314:	fe5210e3          	bne	tp,t0,2f4 <test_15+0x8>
 318:	0f0013b7          	lui	t2,0xf001
 31c:	f0038393          	addi	t2,t2,-256 # f000f00 <_end+0xf0008f0>
 320:	22771c63          	bne	a4,t2,558 <fail>

00000324 <test_16>:
 324:	01000193          	li	gp,16
 328:	00000213          	li	tp,0
 32c:	0ff010b7          	lui	ra,0xff01
 330:	ff008093          	addi	ra,ra,-16 # ff00ff0 <_end+0xff009e0>
 334:	00000013          	nop
 338:	f0f0f137          	lui	sp,0xf0f0f
 33c:	0f010113          	addi	sp,sp,240 # f0f0f0f0 <_end+0xf0f0eae0>
 340:	00000013          	nop
 344:	0020f733          	and	a4,ra,sp
 348:	00120213          	addi	tp,tp,1 # 1 <_start+0x1>
 34c:	00200293          	li	t0,2
 350:	fc521ee3          	bne	tp,t0,32c <test_16+0x8>
 354:	00f003b7          	lui	t2,0xf00
 358:	0f038393          	addi	t2,t2,240 # f000f0 <_end+0xeffae0>
 35c:	1e771e63          	bne	a4,t2,558 <fail>

00000360 <test_17>:
 360:	01100193          	li	gp,17
 364:	00000213          	li	tp,0
 368:	00ff00b7          	lui	ra,0xff0
 36c:	0ff08093          	addi	ra,ra,255 # ff00ff <_end+0xfefaef>
 370:	00000013          	nop
 374:	00000013          	nop
 378:	0f0f1137          	lui	sp,0xf0f1
 37c:	f0f10113          	addi	sp,sp,-241 # f0f0f0f <_end+0xf0f08ff>
 380:	0020f733          	and	a4,ra,sp
 384:	00120213          	addi	tp,tp,1 # 1 <_start+0x1>
 388:	00200293          	li	t0,2
 38c:	fc521ee3          	bne	tp,t0,368 <test_17+0x8>
 390:	000f03b7          	lui	t2,0xf0
 394:	00f38393          	addi	t2,t2,15 # f000f <_end+0xef9ff>
 398:	1c771063          	bne	a4,t2,558 <fail>

0000039c <test_18>:
 39c:	01200193          	li	gp,18
 3a0:	00000213          	li	tp,0
 3a4:	0f0f1137          	lui	sp,0xf0f1
 3a8:	f0f10113          	addi	sp,sp,-241 # f0f0f0f <_end+0xf0f08ff>
 3ac:	ff0100b7          	lui	ra,0xff010
 3b0:	f0008093          	addi	ra,ra,-256 # ff00ff00 <_end+0xff00f8f0>
 3b4:	0020f733          	and	a4,ra,sp
 3b8:	00120213          	addi	tp,tp,1 # 1 <_start+0x1>
 3bc:	00200293          	li	t0,2
 3c0:	fe5212e3          	bne	tp,t0,3a4 <test_18+0x8>
 3c4:	0f0013b7          	lui	t2,0xf001
 3c8:	f0038393          	addi	t2,t2,-256 # f000f00 <_end+0xf0008f0>
 3cc:	18771663          	bne	a4,t2,558 <fail>

000003d0 <test_19>:
 3d0:	01300193          	li	gp,19
 3d4:	00000213          	li	tp,0
 3d8:	f0f0f137          	lui	sp,0xf0f0f
 3dc:	0f010113          	addi	sp,sp,240 # f0f0f0f0 <_end+0xf0f0eae0>
 3e0:	0ff010b7          	lui	ra,0xff01
 3e4:	ff008093          	addi	ra,ra,-16 # ff00ff0 <_end+0xff009e0>
 3e8:	00000013          	nop
 3ec:	0020f733          	and	a4,ra,sp
 3f0:	00120213          	addi	tp,tp,1 # 1 <_start+0x1>
 3f4:	00200293          	li	t0,2
 3f8:	fe5210e3          	bne	tp,t0,3d8 <test_19+0x8>
 3fc:	00f003b7          	lui	t2,0xf00
 400:	0f038393          	addi	t2,t2,240 # f000f0 <_end+0xeffae0>
 404:	14771a63          	bne	a4,t2,558 <fail>

00000408 <test_20>:
 408:	01400193          	li	gp,20
 40c:	00000213          	li	tp,0
 410:	0f0f1137          	lui	sp,0xf0f1
 414:	f0f10113          	addi	sp,sp,-241 # f0f0f0f <_end+0xf0f08ff>
 418:	00ff00b7          	lui	ra,0xff0
 41c:	0ff08093          	addi	ra,ra,255 # ff00ff <_end+0xfefaef>
 420:	00000013          	nop
 424:	00000013          	nop
 428:	0020f733          	and	a4,ra,sp
 42c:	00120213          	addi	tp,tp,1 # 1 <_start+0x1>
 430:	00200293          	li	t0,2
 434:	fc521ee3          	bne	tp,t0,410 <test_20+0x8>
 438:	000f03b7          	lui	t2,0xf0
 43c:	00f38393          	addi	t2,t2,15 # f000f <_end+0xef9ff>
 440:	10771c63          	bne	a4,t2,558 <fail>

00000444 <test_21>:
 444:	01500193          	li	gp,21
 448:	00000213          	li	tp,0
 44c:	0f0f1137          	lui	sp,0xf0f1
 450:	f0f10113          	addi	sp,sp,-241 # f0f0f0f <_end+0xf0f08ff>
 454:	00000013          	nop
 458:	ff0100b7          	lui	ra,0xff010
 45c:	f0008093          	addi	ra,ra,-256 # ff00ff00 <_end+0xff00f8f0>
 460:	0020f733          	and	a4,ra,sp
 464:	00120213          	addi	tp,tp,1 # 1 <_start+0x1>
 468:	00200293          	li	t0,2
 46c:	fe5210e3          	bne	tp,t0,44c <test_21+0x8>
 470:	0f0013b7          	lui	t2,0xf001
 474:	f0038393          	addi	t2,t2,-256 # f000f00 <_end+0xf0008f0>
 478:	0e771063          	bne	a4,t2,558 <fail>

0000047c <test_22>:
 47c:	01600193          	li	gp,22
 480:	00000213          	li	tp,0
 484:	f0f0f137          	lui	sp,0xf0f0f
 488:	0f010113          	addi	sp,sp,240 # f0f0f0f0 <_end+0xf0f0eae0>
 48c:	00000013          	nop
 490:	0ff010b7          	lui	ra,0xff01
 494:	ff008093          	addi	ra,ra,-16 # ff00ff0 <_end+0xff009e0>
 498:	00000013          	nop
 49c:	0020f733          	and	a4,ra,sp
 4a0:	00120213          	addi	tp,tp,1 # 1 <_start+0x1>
 4a4:	00200293          	li	t0,2
 4a8:	fc521ee3          	bne	tp,t0,484 <test_22+0x8>
 4ac:	00f003b7          	lui	t2,0xf00
 4b0:	0f038393          	addi	t2,t2,240 # f000f0 <_end+0xeffae0>
 4b4:	0a771263          	bne	a4,t2,558 <fail>

000004b8 <test_23>:
 4b8:	01700193          	li	gp,23
 4bc:	00000213          	li	tp,0
 4c0:	0f0f1137          	lui	sp,0xf0f1
 4c4:	f0f10113          	addi	sp,sp,-241 # f0f0f0f <_end+0xf0f08ff>
 4c8:	00000013          	nop
 4cc:	00000013          	nop
 4d0:	00ff00b7          	lui	ra,0xff0
 4d4:	0ff08093          	addi	ra,ra,255 # ff00ff <_end+0xfefaef>
 4d8:	0020f733          	and	a4,ra,sp
 4dc:	00120213          	addi	tp,tp,1 # 1 <_start+0x1>
 4e0:	00200293          	li	t0,2
 4e4:	fc521ee3          	bne	tp,t0,4c0 <test_23+0x8>
 4e8:	000f03b7          	lui	t2,0xf0
 4ec:	00f38393          	addi	t2,t2,15 # f000f <_end+0xef9ff>
 4f0:	06771463          	bne	a4,t2,558 <fail>

000004f4 <test_24>:
 4f4:	01800193          	li	gp,24
 4f8:	ff0100b7          	lui	ra,0xff010
 4fc:	f0008093          	addi	ra,ra,-256 # ff00ff00 <_end+0xff00f8f0>
 500:	00107133          	and	sp,zero,ra
 504:	00000393          	li	t2,0
 508:	04711863          	bne	sp,t2,558 <fail>

0000050c <test_25>:
 50c:	01900193          	li	gp,25
 510:	00ff00b7          	lui	ra,0xff0
 514:	0ff08093          	addi	ra,ra,255 # ff00ff <_end+0xfefaef>
 518:	0000f133          	and	sp,ra,zero
 51c:	00000393          	li	t2,0
 520:	02711c63          	bne	sp,t2,558 <fail>

00000524 <test_26>:
 524:	01a00193          	li	gp,26
 528:	000070b3          	and	ra,zero,zero
 52c:	00000393          	li	t2,0
 530:	02709463          	bne	ra,t2,558 <fail>

00000534 <test_27>:
 534:	01b00193          	li	gp,27
 538:	111110b7          	lui	ra,0x11111
 53c:	11108093          	addi	ra,ra,273 # 11111111 <_end+0x11110b01>
 540:	22222137          	lui	sp,0x22222
 544:	22210113          	addi	sp,sp,546 # 22222222 <_end+0x22221c12>
 548:	0020f033          	and	zero,ra,sp
 54c:	00000393          	li	t2,0
 550:	00701463          	bne	zero,t2,558 <fail>
 554:	02301063          	bne	zero,gp,574 <pass>

00000558 <fail>:
 558:	0ff0000f          	fence
 55c:	00018063          	beqz	gp,55c <fail+0x4>
 560:	00119193          	slli	gp,gp,0x1
 564:	0011e193          	ori	gp,gp,1
 568:	05d00893          	li	a7,93
 56c:	00018513          	mv	a0,gp
 570:	00000073          	ecall

00000574 <pass>:
 574:	0ff0000f          	fence
 578:	00100193          	li	gp,1
 57c:	05d00893          	li	a7,93
 580:	00000513          	li	a0,0
 584:	00000073          	ecall
 588:	c0001073          	unimp
