
tests/upstream/binaries/bgeu.elf:     file format elf32-littleriscv


Disassembly of section .text.init:

00000000 <_start>:
   0:	0400006f          	j	40 <reset_vector>

00000004 <trap_vector>:
   4:	34202f73          	csrr	t5,mcause
   8:	00b00f93          	li	t6,11
   c:	03ff0263          	beq	t5,t6,30 <write_tohost>
  10:	00000f17          	auipc	t5,0x0
  14:	ff0f0f13          	addi	t5,t5,-16 # 0 <_start>
  18:	000f0463          	beqz	t5,20 <trap_vector+0x1c>
  1c:	000f0067          	jr	t5
  20:	34202f73          	csrr	t5,mcause
  24:	000f5463          	bgez	t5,2c <handle_exception>
  28:	0040006f          	j	2c <handle_exception>

0000002c <handle_exception>:
  2c:	5391e193          	ori	gp,gp,1337

00000030 <write_tohost>:
  30:	04000f37          	lui	t5,0x4000
  34:	003f2023          	sw	gp,0(t5) # 4000000 <_end+0x3fffab0>
  38:	000f2223          	sw	zero,4(t5)
  3c:	ff5ff06f          	j	30 <write_tohost>

00000040 <reset_vector>:
  40:	00000093          	li	ra,0
  44:	00000113          	li	sp,0
  48:	00000193          	li	gp,0
  4c:	00000213          	li	tp,0
  50:	00000293          	li	t0,0
  54:	00000313          	li	t1,0
  58:	00000393          	li	t2,0
  5c:	00000413          	li	s0,0
  60:	00000493          	li	s1,0
  64:	00000513          	li	a0,0
  68:	00000593          	li	a1,0
  6c:	00000613          	li	a2,0
  70:	00000693          	li	a3,0
  74:	00000713          	li	a4,0
  78:	00000793          	li	a5,0
  7c:	00000813          	li	a6,0
  80:	00000893          	li	a7,0
  84:	00000913          	li	s2,0
  88:	00000993          	li	s3,0
  8c:	00000a13          	li	s4,0
  90:	00000a93          	li	s5,0
  94:	00000b13          	li	s6,0
  98:	00000b93          	li	s7,0
  9c:	00000c13          	li	s8,0
  a0:	00000c93          	li	s9,0
  a4:	00000d13          	li	s10,0
  a8:	00000d93          	li	s11,0
  ac:	00000e13          	li	t3,0
  b0:	00000e93          	li	t4,0
  b4:	00000f13          	li	t5,0
  b8:	00000f93          	li	t6,0
  bc:	00000193          	li	gp,0
  c0:	00000297          	auipc	t0,0x0
  c4:	f4428293          	addi	t0,t0,-188 # 4 <trap_vector>
  c8:	30529073          	csrw	mtvec,t0
  cc:	00100513          	li	a0,1
  d0:	01f51513          	slli	a0,a0,0x1f
  d4:	00054c63          	bltz	a0,ec <reset_vector+0xac>
  d8:	0ff0000f          	fence
  dc:	00100193          	li	gp,1
  e0:	05d00893          	li	a7,93
  e4:	00000513          	li	a0,0
  e8:	00000073          	ecall
  ec:	30005073          	csrwi	mstatus,0
  f0:	00000297          	auipc	t0,0x0
  f4:	01428293          	addi	t0,t0,20 # 104 <test_2>
  f8:	34129073          	csrw	mepc,t0
  fc:	f1402573          	csrr	a0,mhartid
 100:	30200073          	mret

00000104 <test_2>:
 104:	00200193          	li	gp,2
 108:	00000093          	li	ra,0
 10c:	00000113          	li	sp,0
 110:	0020f663          	bgeu	ra,sp,11c <test_2+0x18>
 114:	34301263          	bne	zero,gp,458 <fail>
 118:	00301663          	bne	zero,gp,124 <test_3>
 11c:	fe20fee3          	bgeu	ra,sp,118 <test_2+0x14>
 120:	32301c63          	bne	zero,gp,458 <fail>

00000124 <test_3>:
 124:	00300193          	li	gp,3
 128:	00100093          	li	ra,1
 12c:	00100113          	li	sp,1
 130:	0020f663          	bgeu	ra,sp,13c <test_3+0x18>
 134:	32301263          	bne	zero,gp,458 <fail>
 138:	00301663          	bne	zero,gp,144 <test_4>
 13c:	fe20fee3          	bgeu	ra,sp,138 <test_3+0x14>
 140:	30301c63          	bne	zero,gp,458 <fail>

00000144 <test_4>:
 144:	00400193          	li	gp,4
 148:	fff00093          	li	ra,-1
 14c:	fff00113          	li	sp,-1
 150:	0020f663          	bgeu	ra,sp,15c <test_4+0x18>
 154:	30301263          	bne	zero,gp,458 <fail>
 158:	00301663          	bne	zero,gp,164 <test_5>
 15c:	fe20fee3          	bgeu	ra,sp,158 <test_4+0x14>
 160:	2e301c63          	bne	zero,gp,458 <fail>

00000164 <test_5>:
 164:	00500193          	li	gp,5
 168:	00100093          	li	ra,1
 16c:	00000113          	li	sp,0
 170:	0020f663          	bgeu	ra,sp,17c <test_5+0x18>
 174:	2e301263          	bne	zero,gp,458 <fail>
 178:	00301663          	bne	zero,gp,184 <test_6>
 17c:	fe20fee3          	bgeu	ra,sp,178 <test_5+0x14>
 180:	2c301c63          	bne	zero,gp,458 <fail>

00000184 <test_6>:
 184:	00600193          	li	gp,6
 188:	fff00093          	li	ra,-1
 18c:	ffe00113          	li	sp,-2
 190:	0020f663          	bgeu	ra,sp,19c <test_6+0x18>
 194:	2c301263          	bne	zero,gp,458 <fail>
 198:	00301663          	bne	zero,gp,1a4 <test_7>
 19c:	fe20fee3          	bgeu	ra,sp,198 <test_6+0x14>
 1a0:	2a301c63          	bne	zero,gp,458 <fail>

000001a4 <test_7>:
 1a4:	00700193          	li	gp,7
 1a8:	fff00093          	li	ra,-1
 1ac:	00000113          	li	sp,0
 1b0:	0020f663          	bgeu	ra,sp,1bc <test_7+0x18>
 1b4:	2a301263          	bne	zero,gp,458 <fail>
 1b8:	00301663          	bne	zero,gp,1c4 <test_8>
 1bc:	fe20fee3          	bgeu	ra,sp,1b8 <test_7+0x14>
 1c0:	28301c63          	bne	zero,gp,458 <fail>

000001c4 <test_8>:
 1c4:	00800193          	li	gp,8
 1c8:	00000093          	li	ra,0
 1cc:	00100113          	li	sp,1
 1d0:	0020f463          	bgeu	ra,sp,1d8 <test_8+0x14>
 1d4:	00301463          	bne	zero,gp,1dc <test_8+0x18>
 1d8:	28301063          	bne	zero,gp,458 <fail>
 1dc:	fe20fee3          	bgeu	ra,sp,1d8 <test_8+0x14>

000001e0 <test_9>:
 1e0:	00900193          	li	gp,9
 1e4:	ffe00093          	li	ra,-2
 1e8:	fff00113          	li	sp,-1
 1ec:	0020f463          	bgeu	ra,sp,1f4 <test_9+0x14>
 1f0:	00301463          	bne	zero,gp,1f8 <test_9+0x18>
 1f4:	26301263          	bne	zero,gp,458 <fail>
 1f8:	fe20fee3          	bgeu	ra,sp,1f4 <test_9+0x14>

000001fc <test_10>:
 1fc:	00a00193          	li	gp,10
 200:	00000093          	li	ra,0
 204:	fff00113          	li	sp,-1
 208:	0020f463          	bgeu	ra,sp,210 <test_10+0x14>
 20c:	00301463          	bne	zero,gp,214 <test_10+0x18>
 210:	24301463          	bne	zero,gp,458 <fail>
 214:	fe20fee3          	bgeu	ra,sp,210 <test_10+0x14>

00000218 <test_11>:
 218:	00b00193          	li	gp,11
 21c:	800000b7          	lui	ra,0x80000
 220:	fff08093          	addi	ra,ra,-1 # 7fffffff <_end+0x7ffffaaf>
 224:	80000137          	lui	sp,0x80000
 228:	0020f463          	bgeu	ra,sp,230 <test_11+0x18>
 22c:	00301463          	bne	zero,gp,234 <test_11+0x1c>
 230:	22301463          	bne	zero,gp,458 <fail>
 234:	fe20fee3          	bgeu	ra,sp,230 <test_11+0x18>

00000238 <test_12>:
 238:	00c00193          	li	gp,12
 23c:	00000213          	li	tp,0
 240:	f00000b7          	lui	ra,0xf0000
 244:	fff08093          	addi	ra,ra,-1 # efffffff <_end+0xeffffaaf>
 248:	f0000137          	lui	sp,0xf0000
 24c:	2020f663          	bgeu	ra,sp,458 <fail>
 250:	00120213          	addi	tp,tp,1 # 1 <_start+0x1>
 254:	00200293          	li	t0,2
 258:	fe5214e3          	bne	tp,t0,240 <test_12+0x8>

0000025c <test_13>:
 25c:	00d00193          	li	gp,13
 260:	00000213          	li	tp,0
 264:	f00000b7          	lui	ra,0xf0000
 268:	fff08093          	addi	ra,ra,-1 # efffffff <_end+0xeffffaaf>
 26c:	f0000137          	lui	sp,0xf0000
 270:	00000013          	nop
 274:	1e20f263          	bgeu	ra,sp,458 <fail>
 278:	00120213          	addi	tp,tp,1 # 1 <_start+0x1>
 27c:	00200293          	li	t0,2
 280:	fe5212e3          	bne	tp,t0,264 <test_13+0x8>

00000284 <test_14>:
 284:	00e00193          	li	gp,14
 288:	00000213          	li	tp,0
 28c:	f00000b7          	lui	ra,0xf0000
 290:	fff08093          	addi	ra,ra,-1 # efffffff <_end+0xeffffaaf>
 294:	f0000137          	lui	sp,0xf0000
 298:	00000013          	nop
 29c:	00000013          	nop
 2a0:	1a20fc63          	bgeu	ra,sp,458 <fail>
 2a4:	00120213          	addi	tp,tp,1 # 1 <_start+0x1>
 2a8:	00200293          	li	t0,2
 2ac:	fe5210e3          	bne	tp,t0,28c <test_14+0x8>

000002b0 <test_15>:
 2b0:	00f00193          	li	gp,15
 2b4:	00000213          	li	tp,0
 2b8:	f00000b7          	lui	ra,0xf0000
 2bc:	fff08093          	addi	ra,ra,-1 # efffffff <_end+0xeffffaaf>
 2c0:	00000013          	nop
 2c4:	f0000137          	lui	sp,0xf0000
 2c8:	1820f863          	bgeu	ra,sp,458 <fail>
 2cc:	00120213          	addi	tp,tp,1 # 1 <_start+0x1>
 2d0:	00200293          	li	t0,2
 2d4:	fe5212e3          	bne	tp,t0,2b8 <test_15+0x8>

000002d8 <test_16>:
 2d8:	01000193          	li	gp,16
 2dc:	00000213          	li	tp,0
 2e0:	f00000b7          	lui	ra,0xf0000
 2e4:	fff08093          	addi	ra,ra,-1 # efffffff <_end+0xeffffaaf>
 2e8:	00000013          	nop
 2ec:	f0000137          	lui	sp,0xf0000
 2f0:	00000013          	nop
 2f4:	1620f263          	bgeu	ra,sp,458 <fail>
 2f8:	00120213          	addi	tp,tp,1 # 1 <_start+0x1>
 2fc:	00200293          	li	t0,2
 300:	fe5210e3          	bne	tp,t0,2e0 <test_16+0x8>

00000304 <test_17>:
 304:	01100193          	li	gp,17
 308:	00000213          	li	tp,0
 30c:	f00000b7          	lui	ra,0xf0000
 310:	fff08093          	addi	ra,ra,-1 # efffffff <_end+0xeffffaaf>
 314:	00000013          	nop
 318:	00000013          	nop
 31c:	f0000137          	lui	sp,0xf0000
 320:	1220fc63          	bgeu	ra,sp,458 <fail>
 324:	00120213          	addi	tp,tp,1 # 1 <_start+0x1>
 328:	00200293          	li	t0,2
 32c:	fe5210e3          	bne	tp,t0,30c <test_17+0x8>

00000330 <test_18>:
 330:	01200193          	li	gp,18
 334:	00000213          	li	tp,0
 338:	f00000b7          	lui	ra,0xf0000
 33c:	fff08093          	addi	ra,ra,-1 # efffffff <_end+0xeffffaaf>
 340:	f0000137          	lui	sp,0xf0000
 344:	1020fa63          	bgeu	ra,sp,458 <fail>
 348:	00120213          	addi	tp,tp,1 # 1 <_start+0x1>
 34c:	00200293          	li	t0,2
 350:	fe5214e3          	bne	tp,t0,338 <test_18+0x8>

00000354 <test_19>:
 354:	01300193          	li	gp,19
 358:	00000213          	li	tp,0
 35c:	f00000b7          	lui	ra,0xf0000
 360:	fff08093          	addi	ra,ra,-1 # efffffff <_end+0xeffffaaf>
 364:	f0000137          	lui	sp,0xf0000
 368:	00000013          	nop
 36c:	0e20f663          	bgeu	ra,sp,458 <fail>
 370:	00120213          	addi	tp,tp,1 # 1 <_start+0x1>
 374:	00200293          	li	t0,2
 378:	fe5212e3          	bne	tp,t0,35c <test_19+0x8>

0000037c <test_20>:
 37c:	01400193          	li	gp,20
 380:	00000213          	li	tp,0
 384:	f00000b7          	lui	ra,0xf0000
 388:	fff08093          	addi	ra,ra,-1 # efffffff <_end+0xeffffaaf>
 38c:	f0000137          	lui	sp,0xf0000
 390:	00000013          	nop
 394:	00000013          	nop
 398:	0c20f063          	bgeu	ra,sp,458 <fail>
 39c:	00120213          	addi	tp,tp,1 # 1 <_start+0x1>
 3a0:	00200293          	li	t0,2
 3a4:	fe5210e3          	bne	tp,t0,384 <test_20+0x8>

000003a8 <test_21>:
 3a8:	01500193          	li	gp,21
 3ac:	00000213          	li	tp,0
 3b0:	f00000b7          	lui	ra,0xf0000
 3b4:	fff08093          	addi	ra,ra,-1 # efffffff <_end+0xeffffaaf>
 3b8:	00000013          	nop
 3bc:	f0000137          	lui	sp,0xf0000
 3c0:	0820fc63          	bgeu	ra,sp,458 <fail>
 3c4:	00120213          	addi	tp,tp,1 # 1 <_start+0x1>
 3c8:	00200293          	li	t0,2
 3cc:	fe5212e3          	bne	tp,t0,3b0 <test_21+0x8>

000003d0 <test_22>:
 3d0:	01600193          	li	gp,22
 3d4:	00000213          	li	tp,0
 3d8:	f00000b7          	lui	ra,0xf0000
 3dc:	fff08093          	addi	ra,ra,-1 # efffffff <_end+0xeffffaaf>
 3e0:	00000013          	nop
 3e4:	f0000137          	lui	sp,0xf0000
 3e8:	00000013          	nop
 3ec:	0620f663          	bgeu	ra,sp,458 <fail>
 3f0:	00120213          	addi	tp,tp,1 # 1 <_start+0x1>
 3f4:	00200293          	li	t0,2
 3f8:	fe5210e3          	bne	tp,t0,3d8 <test_22+0x8>

000003fc <test_23>:
 3fc:	01700193          	li	gp,23
 400:	00000213          	li	tp,0
 404:	f00000b7          	lui	ra,0xf0000
 408:	fff08093          	addi	ra,ra,-1 # efffffff <_end+0xeffffaaf>
 40c:	00000013          	nop
 410:	00000013          	nop
 414:	f0000137          	lui	sp,0xf0000
 418:	0420f063          	bgeu	ra,sp,458 <fail>
 41c:	00120213          	addi	tp,tp,1 # 1 <_start+0x1>
 420:	00200293          	li	t0,2
 424:	fe5210e3          	bne	tp,t0,404 <test_23+0x8>

00000428 <test_24>:
 428:	01800193          	li	gp,24
 42c:	00100093          	li	ra,1
 430:	0000fa63          	bgeu	ra,zero,444 <test_24+0x1c>
 434:	00108093          	addi	ra,ra,1
 438:	00108093          	addi	ra,ra,1
 43c:	00108093          	addi	ra,ra,1
 440:	00108093          	addi	ra,ra,1
 444:	00108093          	addi	ra,ra,1
 448:	00108093          	addi	ra,ra,1
 44c:	00300393          	li	t2,3
 450:	00709463          	bne	ra,t2,458 <fail>
 454:	02301063          	bne	zero,gp,474 <pass>

00000458 <fail>:
 458:	0ff0000f          	fence
 45c:	00018063          	beqz	gp,45c <fail+0x4>
 460:	00119193          	slli	gp,gp,0x1
 464:	0011e193          	ori	gp,gp,1
 468:	05d00893          	li	a7,93
 46c:	00018513          	mv	a0,gp
 470:	00000073          	ecall

00000474 <pass>:
 474:	0ff0000f          	fence
 478:	00100193          	li	gp,1
 47c:	05d00893          	li	a7,93
 480:	00000513          	li	a0,0
 484:	00000073          	ecall
 488:	c0001073          	unimp
 48c:	0000                	unimp
 48e:	0000                	unimp
 490:	0000                	unimp
 492:	0000                	unimp
 494:	0000                	unimp
 496:	0000                	unimp
 498:	0000                	unimp
 49a:	0000                	unimp
 49c:	0000                	unimp
 49e:	0000                	unimp
 4a0:	0000                	unimp
 4a2:	0000                	unimp
 4a4:	0000                	unimp
 4a6:	0000                	unimp
 4a8:	0000                	unimp
 4aa:	0000                	unimp
 4ac:	0000                	unimp
 4ae:	0000                	unimp
 4b0:	0000                	unimp
 4b2:	0000                	unimp
 4b4:	0000                	unimp
 4b6:	0000                	unimp
 4b8:	0000                	unimp
 4ba:	0000                	unimp
 4bc:	0000                	unimp
 4be:	0000                	unimp
 4c0:	0000                	unimp
 4c2:	0000                	unimp
