
tests/upstream/binaries/bne.elf:     file format elf32-littleriscv


Disassembly of section .text.init:

00000000 <_start>:
   0:	0400006f          	j	40 <reset_vector>

00000004 <trap_vector>:
   4:	34202f73          	csrr	t5,mcause
   8:	00b00f93          	li	t6,11
   c:	03ff0263          	beq	t5,t6,30 <write_tohost>
  10:	00000f17          	auipc	t5,0x0
  14:	ff0f0f13          	addi	t5,t5,-16 # 0 <_start>
  18:	000f0463          	beqz	t5,20 <trap_vector+0x1c>
  1c:	000f0067          	jr	t5
  20:	34202f73          	csrr	t5,mcause
  24:	000f5463          	bgez	t5,2c <handle_exception>
  28:	0040006f          	j	2c <handle_exception>

0000002c <handle_exception>:
  2c:	5391e193          	ori	gp,gp,1337

00000030 <write_tohost>:
  30:	04000f37          	lui	t5,0x4000
  34:	003f2023          	sw	gp,0(t5) # 4000000 <_end+0x3fffb70>
  38:	000f2223          	sw	zero,4(t5)
  3c:	ff5ff06f          	j	30 <write_tohost>

00000040 <reset_vector>:
  40:	00000093          	li	ra,0
  44:	00000113          	li	sp,0
  48:	00000193          	li	gp,0
  4c:	00000213          	li	tp,0
  50:	00000293          	li	t0,0
  54:	00000313          	li	t1,0
  58:	00000393          	li	t2,0
  5c:	00000413          	li	s0,0
  60:	00000493          	li	s1,0
  64:	00000513          	li	a0,0
  68:	00000593          	li	a1,0
  6c:	00000613          	li	a2,0
  70:	00000693          	li	a3,0
  74:	00000713          	li	a4,0
  78:	00000793          	li	a5,0
  7c:	00000813          	li	a6,0
  80:	00000893          	li	a7,0
  84:	00000913          	li	s2,0
  88:	00000993          	li	s3,0
  8c:	00000a13          	li	s4,0
  90:	00000a93          	li	s5,0
  94:	00000b13          	li	s6,0
  98:	00000b93          	li	s7,0
  9c:	00000c13          	li	s8,0
  a0:	00000c93          	li	s9,0
  a4:	00000d13          	li	s10,0
  a8:	00000d93          	li	s11,0
  ac:	00000e13          	li	t3,0
  b0:	00000e93          	li	t4,0
  b4:	00000f13          	li	t5,0
  b8:	00000f93          	li	t6,0
  bc:	00000193          	li	gp,0
  c0:	00000297          	auipc	t0,0x0
  c4:	f4428293          	addi	t0,t0,-188 # 4 <trap_vector>
  c8:	30529073          	csrw	mtvec,t0
  cc:	00100513          	li	a0,1
  d0:	01f51513          	slli	a0,a0,0x1f
  d4:	00054c63          	bltz	a0,ec <reset_vector+0xac>
  d8:	0ff0000f          	fence
  dc:	00100193          	li	gp,1
  e0:	05d00893          	li	a7,93
  e4:	00000513          	li	a0,0
  e8:	00000073          	ecall
  ec:	30005073          	csrwi	mstatus,0
  f0:	00000297          	auipc	t0,0x0
  f4:	01428293          	addi	t0,t0,20 # 104 <test_2>
  f8:	34129073          	csrw	mepc,t0
  fc:	f1402573          	csrr	a0,mhartid
 100:	30200073          	mret

00000104 <test_2>:
 104:	00200193          	li	gp,2
 108:	00000093          	li	ra,0
 10c:	00100113          	li	sp,1
 110:	00209663          	bne	ra,sp,11c <test_2+0x18>
 114:	2a301a63          	bne	zero,gp,3c8 <fail>
 118:	00301663          	bne	zero,gp,124 <test_3>
 11c:	fe209ee3          	bne	ra,sp,118 <test_2+0x14>
 120:	2a301463          	bne	zero,gp,3c8 <fail>

00000124 <test_3>:
 124:	00300193          	li	gp,3
 128:	00100093          	li	ra,1
 12c:	00000113          	li	sp,0
 130:	00209663          	bne	ra,sp,13c <test_3+0x18>
 134:	28301a63          	bne	zero,gp,3c8 <fail>
 138:	00301663          	bne	zero,gp,144 <test_4>
 13c:	fe209ee3          	bne	ra,sp,138 <test_3+0x14>
 140:	28301463          	bne	zero,gp,3c8 <fail>

00000144 <test_4>:
 144:	00400193          	li	gp,4
 148:	fff00093          	li	ra,-1
 14c:	00100113          	li	sp,1
 150:	00209663          	bne	ra,sp,15c <test_4+0x18>
 154:	26301a63          	bne	zero,gp,3c8 <fail>
 158:	00301663          	bne	zero,gp,164 <test_5>
 15c:	fe209ee3          	bne	ra,sp,158 <test_4+0x14>
 160:	26301463          	bne	zero,gp,3c8 <fail>

00000164 <test_5>:
 164:	00500193          	li	gp,5
 168:	00100093          	li	ra,1
 16c:	fff00113          	li	sp,-1
 170:	00209663          	bne	ra,sp,17c <test_5+0x18>
 174:	24301a63          	bne	zero,gp,3c8 <fail>
 178:	00301663          	bne	zero,gp,184 <test_6>
 17c:	fe209ee3          	bne	ra,sp,178 <test_5+0x14>
 180:	24301463          	bne	zero,gp,3c8 <fail>

00000184 <test_6>:
 184:	00600193          	li	gp,6
 188:	00000093          	li	ra,0
 18c:	00000113          	li	sp,0
 190:	00209463          	bne	ra,sp,198 <test_6+0x14>
 194:	00301463          	bne	zero,gp,19c <test_6+0x18>
 198:	22301863          	bne	zero,gp,3c8 <fail>
 19c:	fe209ee3          	bne	ra,sp,198 <test_6+0x14>

000001a0 <test_7>:
 1a0:	00700193          	li	gp,7
 1a4:	00100093          	li	ra,1
 1a8:	00100113          	li	sp,1
 1ac:	00209463          	bne	ra,sp,1b4 <test_7+0x14>
 1b0:	00301463          	bne	zero,gp,1b8 <test_7+0x18>
 1b4:	20301a63          	bne	zero,gp,3c8 <fail>
 1b8:	fe209ee3          	bne	ra,sp,1b4 <test_7+0x14>

000001bc <test_8>:
 1bc:	00800193          	li	gp,8
 1c0:	fff00093          	li	ra,-1
 1c4:	fff00113          	li	sp,-1
 1c8:	00209463          	bne	ra,sp,1d0 <test_8+0x14>
 1cc:	00301463          	bne	zero,gp,1d4 <test_8+0x18>
 1d0:	1e301c63          	bne	zero,gp,3c8 <fail>
 1d4:	fe209ee3          	bne	ra,sp,1d0 <test_8+0x14>

000001d8 <test_9>:
 1d8:	00900193          	li	gp,9
 1dc:	00000213          	li	tp,0
 1e0:	00000093          	li	ra,0
 1e4:	00000113          	li	sp,0
 1e8:	1e209063          	bne	ra,sp,3c8 <fail>
 1ec:	00120213          	addi	tp,tp,1 # 1 <_start+0x1>
 1f0:	00200293          	li	t0,2
 1f4:	fe5216e3          	bne	tp,t0,1e0 <test_9+0x8>

000001f8 <test_10>:
 1f8:	00a00193          	li	gp,10
 1fc:	00000213          	li	tp,0
 200:	00000093          	li	ra,0
 204:	00000113          	li	sp,0
 208:	00000013          	nop
 20c:	1a209e63          	bne	ra,sp,3c8 <fail>
 210:	00120213          	addi	tp,tp,1 # 1 <_start+0x1>
 214:	00200293          	li	t0,2
 218:	fe5214e3          	bne	tp,t0,200 <test_10+0x8>

0000021c <test_11>:
 21c:	00b00193          	li	gp,11
 220:	00000213          	li	tp,0
 224:	00000093          	li	ra,0
 228:	00000113          	li	sp,0
 22c:	00000013          	nop
 230:	00000013          	nop
 234:	18209a63          	bne	ra,sp,3c8 <fail>
 238:	00120213          	addi	tp,tp,1 # 1 <_start+0x1>
 23c:	00200293          	li	t0,2
 240:	fe5212e3          	bne	tp,t0,224 <test_11+0x8>

00000244 <test_12>:
 244:	00c00193          	li	gp,12
 248:	00000213          	li	tp,0
 24c:	00000093          	li	ra,0
 250:	00000013          	nop
 254:	00000113          	li	sp,0
 258:	16209863          	bne	ra,sp,3c8 <fail>
 25c:	00120213          	addi	tp,tp,1 # 1 <_start+0x1>
 260:	00200293          	li	t0,2
 264:	fe5214e3          	bne	tp,t0,24c <test_12+0x8>

00000268 <test_13>:
 268:	00d00193          	li	gp,13
 26c:	00000213          	li	tp,0
 270:	00000093          	li	ra,0
 274:	00000013          	nop
 278:	00000113          	li	sp,0
 27c:	00000013          	nop
 280:	14209463          	bne	ra,sp,3c8 <fail>
 284:	00120213          	addi	tp,tp,1 # 1 <_start+0x1>
 288:	00200293          	li	t0,2
 28c:	fe5212e3          	bne	tp,t0,270 <test_13+0x8>

00000290 <test_14>:
 290:	00e00193          	li	gp,14
 294:	00000213          	li	tp,0
 298:	00000093          	li	ra,0
 29c:	00000013          	nop
 2a0:	00000013          	nop
 2a4:	00000113          	li	sp,0
 2a8:	12209063          	bne	ra,sp,3c8 <fail>
 2ac:	00120213          	addi	tp,tp,1 # 1 <_start+0x1>
 2b0:	00200293          	li	t0,2
 2b4:	fe5212e3          	bne	tp,t0,298 <test_14+0x8>

000002b8 <test_15>:
 2b8:	00f00193          	li	gp,15
 2bc:	00000213          	li	tp,0
 2c0:	00000093          	li	ra,0
 2c4:	00000113          	li	sp,0
 2c8:	10209063          	bne	ra,sp,3c8 <fail>
 2cc:	00120213          	addi	tp,tp,1 # 1 <_start+0x1>
 2d0:	00200293          	li	t0,2
 2d4:	fe5216e3          	bne	tp,t0,2c0 <test_15+0x8>

000002d8 <test_16>:
 2d8:	01000193          	li	gp,16
 2dc:	00000213          	li	tp,0
 2e0:	00000093          	li	ra,0
 2e4:	00000113          	li	sp,0
 2e8:	00000013          	nop
 2ec:	0c209e63          	bne	ra,sp,3c8 <fail>
 2f0:	00120213          	addi	tp,tp,1 # 1 <_start+0x1>
 2f4:	00200293          	li	t0,2
 2f8:	fe5214e3          	bne	tp,t0,2e0 <test_16+0x8>

000002fc <test_17>:
 2fc:	01100193          	li	gp,17
 300:	00000213          	li	tp,0
 304:	00000093          	li	ra,0
 308:	00000113          	li	sp,0
 30c:	00000013          	nop
 310:	00000013          	nop
 314:	0a209a63          	bne	ra,sp,3c8 <fail>
 318:	00120213          	addi	tp,tp,1 # 1 <_start+0x1>
 31c:	00200293          	li	t0,2
 320:	fe5212e3          	bne	tp,t0,304 <test_17+0x8>

00000324 <test_18>:
 324:	01200193          	li	gp,18
 328:	00000213          	li	tp,0
 32c:	00000093          	li	ra,0
 330:	00000013          	nop
 334:	00000113          	li	sp,0
 338:	08209863          	bne	ra,sp,3c8 <fail>
 33c:	00120213          	addi	tp,tp,1 # 1 <_start+0x1>
 340:	00200293          	li	t0,2
 344:	fe5214e3          	bne	tp,t0,32c <test_18+0x8>

00000348 <test_19>:
 348:	01300193          	li	gp,19
 34c:	00000213          	li	tp,0
 350:	00000093          	li	ra,0
 354:	00000013          	nop
 358:	00000113          	li	sp,0
 35c:	00000013          	nop
 360:	06209463          	bne	ra,sp,3c8 <fail>
 364:	00120213          	addi	tp,tp,1 # 1 <_start+0x1>
 368:	00200293          	li	t0,2
 36c:	fe5212e3          	bne	tp,t0,350 <test_19+0x8>

00000370 <test_20>:
 370:	01400193          	li	gp,20
 374:	00000213          	li	tp,0
 378:	00000093          	li	ra,0
 37c:	00000013          	nop
 380:	00000013          	nop
 384:	00000113          	li	sp,0
 388:	04209063          	bne	ra,sp,3c8 <fail>
 38c:	00120213          	addi	tp,tp,1 # 1 <_start+0x1>
 390:	00200293          	li	t0,2
 394:	fe5212e3          	bne	tp,t0,378 <test_20+0x8>

00000398 <test_21>:
 398:	01500193          	li	gp,21
 39c:	00100093          	li	ra,1
 3a0:	00009a63          	bnez	ra,3b4 <test_21+0x1c>
 3a4:	00108093          	addi	ra,ra,1
 3a8:	00108093          	addi	ra,ra,1
 3ac:	00108093          	addi	ra,ra,1
 3b0:	00108093          	addi	ra,ra,1
 3b4:	00108093          	addi	ra,ra,1
 3b8:	00108093          	addi	ra,ra,1
 3bc:	00300393          	li	t2,3
 3c0:	00709463          	bne	ra,t2,3c8 <fail>
 3c4:	02301063          	bne	zero,gp,3e4 <pass>

000003c8 <fail>:
 3c8:	0ff0000f          	fence
 3cc:	00018063          	beqz	gp,3cc <fail+0x4>
 3d0:	00119193          	slli	gp,gp,0x1
 3d4:	0011e193          	ori	gp,gp,1
 3d8:	05d00893          	li	a7,93
 3dc:	00018513          	mv	a0,gp
 3e0:	00000073          	ecall

000003e4 <pass>:
 3e4:	0ff0000f          	fence
 3e8:	00100193          	li	gp,1
 3ec:	05d00893          	li	a7,93
 3f0:	00000513          	li	a0,0
 3f4:	00000073          	ecall
 3f8:	c0001073          	unimp
 3fc:	0000                	unimp
 3fe:	0000                	unimp
 400:	0000                	unimp
 402:	0000                	unimp
