
tests/upstream/binaries/bne.elf:     file format elf32-littleriscv


Disassembly of section .text.init:

00000000 <_start>:
   0:	00000093          	li	ra,0
   4:	00000113          	li	sp,0
   8:	00000193          	li	gp,0
   c:	00000213          	li	tp,0
  10:	00000293          	li	t0,0
  14:	00000313          	li	t1,0
  18:	00000393          	li	t2,0
  1c:	00000413          	li	s0,0
  20:	00000493          	li	s1,0
  24:	00000513          	li	a0,0
  28:	00000593          	li	a1,0
  2c:	00000613          	li	a2,0
  30:	00000693          	li	a3,0
  34:	00000713          	li	a4,0
  38:	00000793          	li	a5,0
  3c:	00000813          	li	a6,0
  40:	00000893          	li	a7,0
  44:	00000913          	li	s2,0
  48:	00000993          	li	s3,0
  4c:	00000a13          	li	s4,0
  50:	00000a93          	li	s5,0
  54:	00000b13          	li	s6,0
  58:	00000b93          	li	s7,0
  5c:	00000c13          	li	s8,0
  60:	00000c93          	li	s9,0
  64:	00000d13          	li	s10,0
  68:	00000d93          	li	s11,0
  6c:	00000e13          	li	t3,0
  70:	00000e93          	li	t4,0
  74:	00000f13          	li	t5,0
  78:	00000f93          	li	t6,0
  7c:	00000193          	li	gp,0
  80:	00100513          	li	a0,1
  84:	01f51513          	slli	a0,a0,0x1f
  88:	00054c63          	bltz	a0,a0 <test_2>
  8c:	0ff0000f          	fence
  90:	00100193          	li	gp,1
  94:	05d00893          	li	a7,93
  98:	00000513          	li	a0,0
  9c:	00000073          	ecall

000000a0 <test_2>:
  a0:	00200193          	li	gp,2
  a4:	00000093          	li	ra,0
  a8:	00100113          	li	sp,1
  ac:	00209663          	bne	ra,sp,b8 <test_2+0x18>
  b0:	2a301a63          	bne	zero,gp,364 <fail>
  b4:	00301663          	bne	zero,gp,c0 <test_3>
  b8:	fe209ee3          	bne	ra,sp,b4 <test_2+0x14>
  bc:	2a301463          	bne	zero,gp,364 <fail>

000000c0 <test_3>:
  c0:	00300193          	li	gp,3
  c4:	00100093          	li	ra,1
  c8:	00000113          	li	sp,0
  cc:	00209663          	bne	ra,sp,d8 <test_3+0x18>
  d0:	28301a63          	bne	zero,gp,364 <fail>
  d4:	00301663          	bne	zero,gp,e0 <test_4>
  d8:	fe209ee3          	bne	ra,sp,d4 <test_3+0x14>
  dc:	28301463          	bne	zero,gp,364 <fail>

000000e0 <test_4>:
  e0:	00400193          	li	gp,4
  e4:	fff00093          	li	ra,-1
  e8:	00100113          	li	sp,1
  ec:	00209663          	bne	ra,sp,f8 <test_4+0x18>
  f0:	26301a63          	bne	zero,gp,364 <fail>
  f4:	00301663          	bne	zero,gp,100 <test_5>
  f8:	fe209ee3          	bne	ra,sp,f4 <test_4+0x14>
  fc:	26301463          	bne	zero,gp,364 <fail>

00000100 <test_5>:
 100:	00500193          	li	gp,5
 104:	00100093          	li	ra,1
 108:	fff00113          	li	sp,-1
 10c:	00209663          	bne	ra,sp,118 <test_5+0x18>
 110:	24301a63          	bne	zero,gp,364 <fail>
 114:	00301663          	bne	zero,gp,120 <test_6>
 118:	fe209ee3          	bne	ra,sp,114 <test_5+0x14>
 11c:	24301463          	bne	zero,gp,364 <fail>

00000120 <test_6>:
 120:	00600193          	li	gp,6
 124:	00000093          	li	ra,0
 128:	00000113          	li	sp,0
 12c:	00209463          	bne	ra,sp,134 <test_6+0x14>
 130:	00301463          	bne	zero,gp,138 <test_6+0x18>
 134:	22301863          	bne	zero,gp,364 <fail>
 138:	fe209ee3          	bne	ra,sp,134 <test_6+0x14>

0000013c <test_7>:
 13c:	00700193          	li	gp,7
 140:	00100093          	li	ra,1
 144:	00100113          	li	sp,1
 148:	00209463          	bne	ra,sp,150 <test_7+0x14>
 14c:	00301463          	bne	zero,gp,154 <test_7+0x18>
 150:	20301a63          	bne	zero,gp,364 <fail>
 154:	fe209ee3          	bne	ra,sp,150 <test_7+0x14>

00000158 <test_8>:
 158:	00800193          	li	gp,8
 15c:	fff00093          	li	ra,-1
 160:	fff00113          	li	sp,-1
 164:	00209463          	bne	ra,sp,16c <test_8+0x14>
 168:	00301463          	bne	zero,gp,170 <test_8+0x18>
 16c:	1e301c63          	bne	zero,gp,364 <fail>
 170:	fe209ee3          	bne	ra,sp,16c <test_8+0x14>

00000174 <test_9>:
 174:	00900193          	li	gp,9
 178:	00000213          	li	tp,0
 17c:	00000093          	li	ra,0
 180:	00000113          	li	sp,0
 184:	1e209063          	bne	ra,sp,364 <fail>
 188:	00120213          	addi	tp,tp,1 # 1 <_start+0x1>
 18c:	00200293          	li	t0,2
 190:	fe5216e3          	bne	tp,t0,17c <test_9+0x8>

00000194 <test_10>:
 194:	00a00193          	li	gp,10
 198:	00000213          	li	tp,0
 19c:	00000093          	li	ra,0
 1a0:	00000113          	li	sp,0
 1a4:	00000013          	nop
 1a8:	1a209e63          	bne	ra,sp,364 <fail>
 1ac:	00120213          	addi	tp,tp,1 # 1 <_start+0x1>
 1b0:	00200293          	li	t0,2
 1b4:	fe5214e3          	bne	tp,t0,19c <test_10+0x8>

000001b8 <test_11>:
 1b8:	00b00193          	li	gp,11
 1bc:	00000213          	li	tp,0
 1c0:	00000093          	li	ra,0
 1c4:	00000113          	li	sp,0
 1c8:	00000013          	nop
 1cc:	00000013          	nop
 1d0:	18209a63          	bne	ra,sp,364 <fail>
 1d4:	00120213          	addi	tp,tp,1 # 1 <_start+0x1>
 1d8:	00200293          	li	t0,2
 1dc:	fe5212e3          	bne	tp,t0,1c0 <test_11+0x8>

000001e0 <test_12>:
 1e0:	00c00193          	li	gp,12
 1e4:	00000213          	li	tp,0
 1e8:	00000093          	li	ra,0
 1ec:	00000013          	nop
 1f0:	00000113          	li	sp,0
 1f4:	16209863          	bne	ra,sp,364 <fail>
 1f8:	00120213          	addi	tp,tp,1 # 1 <_start+0x1>
 1fc:	00200293          	li	t0,2
 200:	fe5214e3          	bne	tp,t0,1e8 <test_12+0x8>

00000204 <test_13>:
 204:	00d00193          	li	gp,13
 208:	00000213          	li	tp,0
 20c:	00000093          	li	ra,0
 210:	00000013          	nop
 214:	00000113          	li	sp,0
 218:	00000013          	nop
 21c:	14209463          	bne	ra,sp,364 <fail>
 220:	00120213          	addi	tp,tp,1 # 1 <_start+0x1>
 224:	00200293          	li	t0,2
 228:	fe5212e3          	bne	tp,t0,20c <test_13+0x8>

0000022c <test_14>:
 22c:	00e00193          	li	gp,14
 230:	00000213          	li	tp,0
 234:	00000093          	li	ra,0
 238:	00000013          	nop
 23c:	00000013          	nop
 240:	00000113          	li	sp,0
 244:	12209063          	bne	ra,sp,364 <fail>
 248:	00120213          	addi	tp,tp,1 # 1 <_start+0x1>
 24c:	00200293          	li	t0,2
 250:	fe5212e3          	bne	tp,t0,234 <test_14+0x8>

00000254 <test_15>:
 254:	00f00193          	li	gp,15
 258:	00000213          	li	tp,0
 25c:	00000093          	li	ra,0
 260:	00000113          	li	sp,0
 264:	10209063          	bne	ra,sp,364 <fail>
 268:	00120213          	addi	tp,tp,1 # 1 <_start+0x1>
 26c:	00200293          	li	t0,2
 270:	fe5216e3          	bne	tp,t0,25c <test_15+0x8>

00000274 <test_16>:
 274:	01000193          	li	gp,16
 278:	00000213          	li	tp,0
 27c:	00000093          	li	ra,0
 280:	00000113          	li	sp,0
 284:	00000013          	nop
 288:	0c209e63          	bne	ra,sp,364 <fail>
 28c:	00120213          	addi	tp,tp,1 # 1 <_start+0x1>
 290:	00200293          	li	t0,2
 294:	fe5214e3          	bne	tp,t0,27c <test_16+0x8>

00000298 <test_17>:
 298:	01100193          	li	gp,17
 29c:	00000213          	li	tp,0
 2a0:	00000093          	li	ra,0
 2a4:	00000113          	li	sp,0
 2a8:	00000013          	nop
 2ac:	00000013          	nop
 2b0:	0a209a63          	bne	ra,sp,364 <fail>
 2b4:	00120213          	addi	tp,tp,1 # 1 <_start+0x1>
 2b8:	00200293          	li	t0,2
 2bc:	fe5212e3          	bne	tp,t0,2a0 <test_17+0x8>

000002c0 <test_18>:
 2c0:	01200193          	li	gp,18
 2c4:	00000213          	li	tp,0
 2c8:	00000093          	li	ra,0
 2cc:	00000013          	nop
 2d0:	00000113          	li	sp,0
 2d4:	08209863          	bne	ra,sp,364 <fail>
 2d8:	00120213          	addi	tp,tp,1 # 1 <_start+0x1>
 2dc:	00200293          	li	t0,2
 2e0:	fe5214e3          	bne	tp,t0,2c8 <test_18+0x8>

000002e4 <test_19>:
 2e4:	01300193          	li	gp,19
 2e8:	00000213          	li	tp,0
 2ec:	00000093          	li	ra,0
 2f0:	00000013          	nop
 2f4:	00000113          	li	sp,0
 2f8:	00000013          	nop
 2fc:	06209463          	bne	ra,sp,364 <fail>
 300:	00120213          	addi	tp,tp,1 # 1 <_start+0x1>
 304:	00200293          	li	t0,2
 308:	fe5212e3          	bne	tp,t0,2ec <test_19+0x8>

0000030c <test_20>:
 30c:	01400193          	li	gp,20
 310:	00000213          	li	tp,0
 314:	00000093          	li	ra,0
 318:	00000013          	nop
 31c:	00000013          	nop
 320:	00000113          	li	sp,0
 324:	04209063          	bne	ra,sp,364 <fail>
 328:	00120213          	addi	tp,tp,1 # 1 <_start+0x1>
 32c:	00200293          	li	t0,2
 330:	fe5212e3          	bne	tp,t0,314 <test_20+0x8>

00000334 <test_21>:
 334:	01500193          	li	gp,21
 338:	00100093          	li	ra,1
 33c:	00009a63          	bnez	ra,350 <test_21+0x1c>
 340:	00108093          	addi	ra,ra,1
 344:	00108093          	addi	ra,ra,1
 348:	00108093          	addi	ra,ra,1
 34c:	00108093          	addi	ra,ra,1
 350:	00108093          	addi	ra,ra,1
 354:	00108093          	addi	ra,ra,1
 358:	00300393          	li	t2,3
 35c:	00709463          	bne	ra,t2,364 <fail>
 360:	02301063          	bne	zero,gp,380 <pass>

00000364 <fail>:
 364:	0ff0000f          	fence
 368:	00018063          	beqz	gp,368 <fail+0x4>
 36c:	00119193          	slli	gp,gp,0x1
 370:	0011e193          	ori	gp,gp,1
 374:	05d00893          	li	a7,93
 378:	00018513          	mv	a0,gp
 37c:	00000073          	ecall

00000380 <pass>:
 380:	0ff0000f          	fence
 384:	00100193          	li	gp,1
 388:	05d00893          	li	a7,93
 38c:	00000513          	li	a0,0
 390:	00000073          	ecall
 394:	c0001073          	unimp
