
tests/upstream/binaries/fence_i.elf:     file format elf32-littleriscv


Disassembly of section .text.init:

00000000 <_start>:
   0:	00000093          	li	ra,0
   4:	00000113          	li	sp,0
   8:	00000193          	li	gp,0
   c:	00000213          	li	tp,0
  10:	00000293          	li	t0,0
  14:	00000313          	li	t1,0
  18:	00000393          	li	t2,0
  1c:	00000413          	li	s0,0
  20:	00000493          	li	s1,0
  24:	00000513          	li	a0,0
  28:	00000593          	li	a1,0
  2c:	00000613          	li	a2,0
  30:	00000693          	li	a3,0
  34:	00000713          	li	a4,0
  38:	00000793          	li	a5,0
  3c:	00000813          	li	a6,0
  40:	00000893          	li	a7,0
  44:	00000913          	li	s2,0
  48:	00000993          	li	s3,0
  4c:	00000a13          	li	s4,0
  50:	00000a93          	li	s5,0
  54:	00000b13          	li	s6,0
  58:	00000b93          	li	s7,0
  5c:	00000c13          	li	s8,0
  60:	00000c93          	li	s9,0
  64:	00000d13          	li	s10,0
  68:	00000d93          	li	s11,0
  6c:	00000e13          	li	t3,0
  70:	00000e93          	li	t4,0
  74:	00000f13          	li	t5,0
  78:	00000f93          	li	t6,0
  7c:	00000193          	li	gp,0
  80:	00100513          	li	a0,1
  84:	01f51513          	slli	a0,a0,0x1f
  88:	00054c63          	bltz	a0,a0 <_start+0xa0>
  8c:	0ff0000f          	fence
  90:	00100193          	li	gp,1
  94:	05d00893          	li	a7,93
  98:	00000513          	li	a0,0
  9c:	00000073          	ecall
  a0:	06f00693          	li	a3,111
  a4:	1d001503          	lh	a0,464(zero) # 1d0 <begin_signature>
  a8:	1d201583          	lh	a1,466(zero) # 1d2 <begin_signature+0x2>
  ac:	00000013          	nop
  b0:	00000013          	nop
  b4:	00000013          	nop
  b8:	00000013          	nop
  bc:	00000013          	nop
  c0:	1ca01a23          	sh	a0,468(zero) # 1d4 <begin_signature+0x4>
  c4:	1cb01b23          	sh	a1,470(zero) # 1d6 <begin_signature+0x6>
  c8:	0000100f          	fence.i
  cc:	1d400793          	li	a5,468
  d0:	00078367          	jalr	t1,a5

000000d4 <test_2>:
  d4:	00200193          	li	gp,2
  d8:	00000013          	nop
  dc:	1bc00393          	li	t2,444
  e0:	02769e63          	bne	a3,t2,11c <fail>
  e4:	06400713          	li	a4,100
  e8:	fff70713          	addi	a4,a4,-1
  ec:	fe071ee3          	bnez	a4,e8 <test_2+0x14>
  f0:	1ca01e23          	sh	a0,476(zero) # 1dc <begin_signature+0xc>
  f4:	1cb01f23          	sh	a1,478(zero) # 1de <begin_signature+0xe>
  f8:	0000100f          	fence.i
  fc:	00000013          	nop
 100:	1dc00793          	li	a5,476
 104:	00078367          	jalr	t1,a5

00000108 <test_3>:
 108:	00300193          	li	gp,3
 10c:	00000013          	nop
 110:	30900393          	li	t2,777
 114:	00769463          	bne	a3,t2,11c <fail>
 118:	02301063          	bne	zero,gp,138 <pass>

0000011c <fail>:
 11c:	0ff0000f          	fence
 120:	00018063          	beqz	gp,120 <fail+0x4>
 124:	00119193          	slli	gp,gp,0x1
 128:	0011e193          	ori	gp,gp,1
 12c:	05d00893          	li	a7,93
 130:	00018513          	mv	a0,gp
 134:	00000073          	ecall

00000138 <pass>:
 138:	0ff0000f          	fence
 13c:	00100193          	li	gp,1
 140:	05d00893          	li	a7,93
 144:	00000513          	li	a0,0
 148:	00000073          	ecall
 14c:	c0001073          	unimp
 150:	0000                	unimp
 152:	0000                	unimp
 154:	0000                	unimp
 156:	0000                	unimp
 158:	0000                	unimp
 15a:	0000                	unimp
 15c:	0000                	unimp
 15e:	0000                	unimp
 160:	0000                	unimp
 162:	0000                	unimp
 164:	0000                	unimp
 166:	0000                	unimp
 168:	0000                	unimp
 16a:	0000                	unimp
 16c:	0000                	unimp
 16e:	0000                	unimp
 170:	0000                	unimp
 172:	0000                	unimp
 174:	0000                	unimp
 176:	0000                	unimp
 178:	0000                	unimp
 17a:	0000                	unimp
 17c:	0000                	unimp
 17e:	0000                	unimp

Disassembly of section .data:

000001d0 <begin_signature>:
 1d0:	14d68693          	addi	a3,a3,333
 1d4:	0de68693          	addi	a3,a3,222
 1d8:	000307e7          	jalr	a5,t1
 1dc:	22b68693          	addi	a3,a3,555
 1e0:	000307e7          	jalr	a5,t1
 1e4:	0000                	unimp
 1e6:	0000                	unimp
 1e8:	0000                	unimp
 1ea:	0000                	unimp
 1ec:	0000                	unimp
 1ee:	0000                	unimp
