
tests/upstream/binaries/lb.elf:     file format elf32-littleriscv


Disassembly of section .text.init:

00000000 <_start>:
   0:	00000093          	li	ra,0
   4:	00000113          	li	sp,0
   8:	00000193          	li	gp,0
   c:	00000213          	li	tp,0
  10:	00000293          	li	t0,0
  14:	00000313          	li	t1,0
  18:	00000393          	li	t2,0
  1c:	00000413          	li	s0,0
  20:	00000493          	li	s1,0
  24:	00000513          	li	a0,0
  28:	00000593          	li	a1,0
  2c:	00000613          	li	a2,0
  30:	00000693          	li	a3,0
  34:	00000713          	li	a4,0
  38:	00000793          	li	a5,0
  3c:	00000813          	li	a6,0
  40:	00000893          	li	a7,0
  44:	00000913          	li	s2,0
  48:	00000993          	li	s3,0
  4c:	00000a13          	li	s4,0
  50:	00000a93          	li	s5,0
  54:	00000b13          	li	s6,0
  58:	00000b93          	li	s7,0
  5c:	00000c13          	li	s8,0
  60:	00000c93          	li	s9,0
  64:	00000d13          	li	s10,0
  68:	00000d93          	li	s11,0
  6c:	00000e13          	li	t3,0
  70:	00000e93          	li	t4,0
  74:	00000f13          	li	t5,0
  78:	00000f93          	li	t6,0
  7c:	00000193          	li	gp,0
  80:	00100513          	li	a0,1
  84:	01f51513          	slli	a0,a0,0x1f
  88:	00054c63          	bltz	a0,a0 <test_2>
  8c:	0ff0000f          	fence
  90:	00100193          	li	gp,1
  94:	05d00893          	li	a7,93
  98:	00000513          	li	a0,0
  9c:	00000073          	ecall

000000a0 <test_2>:
  a0:	00200193          	li	gp,2
  a4:	fff00793          	li	a5,-1
  a8:	35000093          	li	ra,848
  ac:	00008703          	lb	a4,0(ra)
  b0:	fff00393          	li	t2,-1
  b4:	20771863          	bne	a4,t2,2c4 <fail>

000000b8 <test_3>:
  b8:	00300193          	li	gp,3
  bc:	00000793          	li	a5,0
  c0:	35000093          	li	ra,848
  c4:	00108703          	lb	a4,1(ra)
  c8:	00000393          	li	t2,0
  cc:	1e771c63          	bne	a4,t2,2c4 <fail>

000000d0 <test_4>:
  d0:	00400193          	li	gp,4
  d4:	ff000793          	li	a5,-16
  d8:	35000093          	li	ra,848
  dc:	00208703          	lb	a4,2(ra)
  e0:	ff000393          	li	t2,-16
  e4:	1e771063          	bne	a4,t2,2c4 <fail>

000000e8 <test_5>:
  e8:	00500193          	li	gp,5
  ec:	00f00793          	li	a5,15
  f0:	35000093          	li	ra,848
  f4:	00308703          	lb	a4,3(ra)
  f8:	00f00393          	li	t2,15
  fc:	1c771463          	bne	a4,t2,2c4 <fail>

00000100 <test_6>:
 100:	00600193          	li	gp,6
 104:	fff00793          	li	a5,-1
 108:	35300093          	li	ra,851
 10c:	ffd08703          	lb	a4,-3(ra)
 110:	fff00393          	li	t2,-1
 114:	1a771863          	bne	a4,t2,2c4 <fail>

00000118 <test_7>:
 118:	00700193          	li	gp,7
 11c:	00000793          	li	a5,0
 120:	35300093          	li	ra,851
 124:	ffe08703          	lb	a4,-2(ra)
 128:	00000393          	li	t2,0
 12c:	18771c63          	bne	a4,t2,2c4 <fail>

00000130 <test_8>:
 130:	00800193          	li	gp,8
 134:	ff000793          	li	a5,-16
 138:	35300093          	li	ra,851
 13c:	fff08703          	lb	a4,-1(ra)
 140:	ff000393          	li	t2,-16
 144:	18771063          	bne	a4,t2,2c4 <fail>

00000148 <test_9>:
 148:	00900193          	li	gp,9
 14c:	00f00793          	li	a5,15
 150:	35300093          	li	ra,851
 154:	00008703          	lb	a4,0(ra)
 158:	00f00393          	li	t2,15
 15c:	16771463          	bne	a4,t2,2c4 <fail>

00000160 <test_10>:
 160:	00a00193          	li	gp,10
 164:	35000093          	li	ra,848
 168:	fe008093          	addi	ra,ra,-32
 16c:	02008283          	lb	t0,32(ra)
 170:	fff00393          	li	t2,-1
 174:	14729863          	bne	t0,t2,2c4 <fail>

00000178 <test_11>:
 178:	00b00193          	li	gp,11
 17c:	35000093          	li	ra,848
 180:	ffa08093          	addi	ra,ra,-6
 184:	00708283          	lb	t0,7(ra)
 188:	00000393          	li	t2,0
 18c:	12729c63          	bne	t0,t2,2c4 <fail>

00000190 <test_12>:
 190:	00c00193          	li	gp,12
 194:	00000213          	li	tp,0
 198:	35100093          	li	ra,849
 19c:	00108703          	lb	a4,1(ra)
 1a0:	00070313          	mv	t1,a4
 1a4:	ff000393          	li	t2,-16
 1a8:	10731e63          	bne	t1,t2,2c4 <fail>
 1ac:	00120213          	addi	tp,tp,1 # 1 <_start+0x1>
 1b0:	00200293          	li	t0,2
 1b4:	fe5212e3          	bne	tp,t0,198 <test_12+0x8>

000001b8 <test_13>:
 1b8:	00d00193          	li	gp,13
 1bc:	00000213          	li	tp,0
 1c0:	35200093          	li	ra,850
 1c4:	00108703          	lb	a4,1(ra)
 1c8:	00000013          	nop
 1cc:	00070313          	mv	t1,a4
 1d0:	00f00393          	li	t2,15
 1d4:	0e731863          	bne	t1,t2,2c4 <fail>
 1d8:	00120213          	addi	tp,tp,1 # 1 <_start+0x1>
 1dc:	00200293          	li	t0,2
 1e0:	fe5210e3          	bne	tp,t0,1c0 <test_13+0x8>

000001e4 <test_14>:
 1e4:	00e00193          	li	gp,14
 1e8:	00000213          	li	tp,0
 1ec:	35000093          	li	ra,848
 1f0:	00108703          	lb	a4,1(ra)
 1f4:	00000013          	nop
 1f8:	00000013          	nop
 1fc:	00070313          	mv	t1,a4
 200:	00000393          	li	t2,0
 204:	0c731063          	bne	t1,t2,2c4 <fail>
 208:	00120213          	addi	tp,tp,1 # 1 <_start+0x1>
 20c:	00200293          	li	t0,2
 210:	fc521ee3          	bne	tp,t0,1ec <test_14+0x8>

00000214 <test_15>:
 214:	00f00193          	li	gp,15
 218:	00000213          	li	tp,0
 21c:	35100093          	li	ra,849
 220:	00108703          	lb	a4,1(ra)
 224:	ff000393          	li	t2,-16
 228:	08771e63          	bne	a4,t2,2c4 <fail>
 22c:	00120213          	addi	tp,tp,1 # 1 <_start+0x1>
 230:	00200293          	li	t0,2
 234:	fe5214e3          	bne	tp,t0,21c <test_15+0x8>

00000238 <test_16>:
 238:	01000193          	li	gp,16
 23c:	00000213          	li	tp,0
 240:	35200093          	li	ra,850
 244:	00000013          	nop
 248:	00108703          	lb	a4,1(ra)
 24c:	00f00393          	li	t2,15
 250:	06771a63          	bne	a4,t2,2c4 <fail>
 254:	00120213          	addi	tp,tp,1 # 1 <_start+0x1>
 258:	00200293          	li	t0,2
 25c:	fe5212e3          	bne	tp,t0,240 <test_16+0x8>

00000260 <test_17>:
 260:	01100193          	li	gp,17
 264:	00000213          	li	tp,0
 268:	35000093          	li	ra,848
 26c:	00000013          	nop
 270:	00000013          	nop
 274:	00108703          	lb	a4,1(ra)
 278:	00000393          	li	t2,0
 27c:	04771463          	bne	a4,t2,2c4 <fail>
 280:	00120213          	addi	tp,tp,1 # 1 <_start+0x1>
 284:	00200293          	li	t0,2
 288:	fe5210e3          	bne	tp,t0,268 <test_17+0x8>

0000028c <test_18>:
 28c:	01200193          	li	gp,18
 290:	35000293          	li	t0,848
 294:	00028103          	lb	sp,0(t0)
 298:	00200113          	li	sp,2
 29c:	00200393          	li	t2,2
 2a0:	02711263          	bne	sp,t2,2c4 <fail>

000002a4 <test_19>:
 2a4:	01300193          	li	gp,19
 2a8:	35000293          	li	t0,848
 2ac:	00028103          	lb	sp,0(t0)
 2b0:	00000013          	nop
 2b4:	00200113          	li	sp,2
 2b8:	00200393          	li	t2,2
 2bc:	00711463          	bne	sp,t2,2c4 <fail>
 2c0:	02301063          	bne	zero,gp,2e0 <pass>

000002c4 <fail>:
 2c4:	0ff0000f          	fence
 2c8:	00018063          	beqz	gp,2c8 <fail+0x4>
 2cc:	00119193          	slli	gp,gp,0x1
 2d0:	0011e193          	ori	gp,gp,1
 2d4:	05d00893          	li	a7,93
 2d8:	00018513          	mv	a0,gp
 2dc:	00000073          	ecall

000002e0 <pass>:
 2e0:	0ff0000f          	fence
 2e4:	00100193          	li	gp,1
 2e8:	05d00893          	li	a7,93
 2ec:	00000513          	li	a0,0
 2f0:	00000073          	ecall
 2f4:	c0001073          	unimp
