
tests/upstream/binaries/lh.elf:     file format elf32-littleriscv


Disassembly of section .text.init:

00000000 <_start>:
   0:	00000093          	li	ra,0
   4:	00000113          	li	sp,0
   8:	00000193          	li	gp,0
   c:	00000213          	li	tp,0
  10:	00000293          	li	t0,0
  14:	00000313          	li	t1,0
  18:	00000393          	li	t2,0
  1c:	00000413          	li	s0,0
  20:	00000493          	li	s1,0
  24:	00000513          	li	a0,0
  28:	00000593          	li	a1,0
  2c:	00000613          	li	a2,0
  30:	00000693          	li	a3,0
  34:	00000713          	li	a4,0
  38:	00000793          	li	a5,0
  3c:	00000813          	li	a6,0
  40:	00000893          	li	a7,0
  44:	00000913          	li	s2,0
  48:	00000993          	li	s3,0
  4c:	00000a13          	li	s4,0
  50:	00000a93          	li	s5,0
  54:	00000b13          	li	s6,0
  58:	00000b93          	li	s7,0
  5c:	00000c13          	li	s8,0
  60:	00000c93          	li	s9,0
  64:	00000d13          	li	s10,0
  68:	00000d93          	li	s11,0
  6c:	00000e13          	li	t3,0
  70:	00000e93          	li	t4,0
  74:	00000f13          	li	t5,0
  78:	00000f93          	li	t6,0
  7c:	00000193          	li	gp,0
  80:	00100513          	li	a0,1
  84:	01f51513          	slli	a0,a0,0x1f
  88:	00054c63          	bltz	a0,a0 <test_2>
  8c:	0ff0000f          	fence
  90:	00100193          	li	gp,1
  94:	05d00893          	li	a7,93
  98:	00000513          	li	a0,0
  9c:	00000073          	ecall

000000a0 <test_2>:
  a0:	00200193          	li	gp,2
  a4:	0ff00793          	li	a5,255
  a8:	39000093          	li	ra,912
  ac:	00009703          	lh	a4,0(ra)
  b0:	0ff00393          	li	t2,255
  b4:	24771063          	bne	a4,t2,2f4 <fail>

000000b8 <test_3>:
  b8:	00300193          	li	gp,3
  bc:	f0000793          	li	a5,-256
  c0:	39000093          	li	ra,912
  c4:	00209703          	lh	a4,2(ra)
  c8:	f0000393          	li	t2,-256
  cc:	22771463          	bne	a4,t2,2f4 <fail>

000000d0 <test_4>:
  d0:	00400193          	li	gp,4
  d4:	000017b7          	lui	a5,0x1
  d8:	ff078793          	addi	a5,a5,-16 # ff0 <_end+0xc50>
  dc:	39000093          	li	ra,912
  e0:	00409703          	lh	a4,4(ra)
  e4:	000013b7          	lui	t2,0x1
  e8:	ff038393          	addi	t2,t2,-16 # ff0 <_end+0xc50>
  ec:	20771463          	bne	a4,t2,2f4 <fail>

000000f0 <test_5>:
  f0:	00500193          	li	gp,5
  f4:	fffff7b7          	lui	a5,0xfffff
  f8:	00f78793          	addi	a5,a5,15 # fffff00f <_end+0xffffec6f>
  fc:	39000093          	li	ra,912
 100:	00609703          	lh	a4,6(ra)
 104:	fffff3b7          	lui	t2,0xfffff
 108:	00f38393          	addi	t2,t2,15 # fffff00f <_end+0xffffec6f>
 10c:	1e771463          	bne	a4,t2,2f4 <fail>

00000110 <test_6>:
 110:	00600193          	li	gp,6
 114:	0ff00793          	li	a5,255
 118:	39600093          	li	ra,918
 11c:	ffa09703          	lh	a4,-6(ra)
 120:	0ff00393          	li	t2,255
 124:	1c771863          	bne	a4,t2,2f4 <fail>

00000128 <test_7>:
 128:	00700193          	li	gp,7
 12c:	f0000793          	li	a5,-256
 130:	39600093          	li	ra,918
 134:	ffc09703          	lh	a4,-4(ra)
 138:	f0000393          	li	t2,-256
 13c:	1a771c63          	bne	a4,t2,2f4 <fail>

00000140 <test_8>:
 140:	00800193          	li	gp,8
 144:	000017b7          	lui	a5,0x1
 148:	ff078793          	addi	a5,a5,-16 # ff0 <_end+0xc50>
 14c:	39600093          	li	ra,918
 150:	ffe09703          	lh	a4,-2(ra)
 154:	000013b7          	lui	t2,0x1
 158:	ff038393          	addi	t2,t2,-16 # ff0 <_end+0xc50>
 15c:	18771c63          	bne	a4,t2,2f4 <fail>

00000160 <test_9>:
 160:	00900193          	li	gp,9
 164:	fffff7b7          	lui	a5,0xfffff
 168:	00f78793          	addi	a5,a5,15 # fffff00f <_end+0xffffec6f>
 16c:	39600093          	li	ra,918
 170:	00009703          	lh	a4,0(ra)
 174:	fffff3b7          	lui	t2,0xfffff
 178:	00f38393          	addi	t2,t2,15 # fffff00f <_end+0xffffec6f>
 17c:	16771c63          	bne	a4,t2,2f4 <fail>

00000180 <test_10>:
 180:	00a00193          	li	gp,10
 184:	39000093          	li	ra,912
 188:	fe008093          	addi	ra,ra,-32
 18c:	02009283          	lh	t0,32(ra)
 190:	0ff00393          	li	t2,255
 194:	16729063          	bne	t0,t2,2f4 <fail>

00000198 <test_11>:
 198:	00b00193          	li	gp,11
 19c:	39000093          	li	ra,912
 1a0:	ffb08093          	addi	ra,ra,-5
 1a4:	00709283          	lh	t0,7(ra)
 1a8:	f0000393          	li	t2,-256
 1ac:	14729463          	bne	t0,t2,2f4 <fail>

000001b0 <test_12>:
 1b0:	00c00193          	li	gp,12
 1b4:	00000213          	li	tp,0
 1b8:	39200093          	li	ra,914
 1bc:	00209703          	lh	a4,2(ra)
 1c0:	00070313          	mv	t1,a4
 1c4:	000013b7          	lui	t2,0x1
 1c8:	ff038393          	addi	t2,t2,-16 # ff0 <_end+0xc50>
 1cc:	12731463          	bne	t1,t2,2f4 <fail>
 1d0:	00120213          	addi	tp,tp,1 # 1 <_start+0x1>
 1d4:	00200293          	li	t0,2
 1d8:	fe5210e3          	bne	tp,t0,1b8 <test_12+0x8>

000001dc <test_13>:
 1dc:	00d00193          	li	gp,13
 1e0:	00000213          	li	tp,0
 1e4:	39400093          	li	ra,916
 1e8:	00209703          	lh	a4,2(ra)
 1ec:	00000013          	nop
 1f0:	00070313          	mv	t1,a4
 1f4:	fffff3b7          	lui	t2,0xfffff
 1f8:	00f38393          	addi	t2,t2,15 # fffff00f <_end+0xffffec6f>
 1fc:	0e731c63          	bne	t1,t2,2f4 <fail>
 200:	00120213          	addi	tp,tp,1 # 1 <_start+0x1>
 204:	00200293          	li	t0,2
 208:	fc521ee3          	bne	tp,t0,1e4 <test_13+0x8>

0000020c <test_14>:
 20c:	00e00193          	li	gp,14
 210:	00000213          	li	tp,0
 214:	39000093          	li	ra,912
 218:	00209703          	lh	a4,2(ra)
 21c:	00000013          	nop
 220:	00000013          	nop
 224:	00070313          	mv	t1,a4
 228:	f0000393          	li	t2,-256
 22c:	0c731463          	bne	t1,t2,2f4 <fail>
 230:	00120213          	addi	tp,tp,1 # 1 <_start+0x1>
 234:	00200293          	li	t0,2
 238:	fc521ee3          	bne	tp,t0,214 <test_14+0x8>

0000023c <test_15>:
 23c:	00f00193          	li	gp,15
 240:	00000213          	li	tp,0
 244:	39200093          	li	ra,914
 248:	00209703          	lh	a4,2(ra)
 24c:	000013b7          	lui	t2,0x1
 250:	ff038393          	addi	t2,t2,-16 # ff0 <_end+0xc50>
 254:	0a771063          	bne	a4,t2,2f4 <fail>
 258:	00120213          	addi	tp,tp,1 # 1 <_start+0x1>
 25c:	00200293          	li	t0,2
 260:	fe5212e3          	bne	tp,t0,244 <test_15+0x8>

00000264 <test_16>:
 264:	01000193          	li	gp,16
 268:	00000213          	li	tp,0
 26c:	39400093          	li	ra,916
 270:	00000013          	nop
 274:	00209703          	lh	a4,2(ra)
 278:	fffff3b7          	lui	t2,0xfffff
 27c:	00f38393          	addi	t2,t2,15 # fffff00f <_end+0xffffec6f>
 280:	06771a63          	bne	a4,t2,2f4 <fail>
 284:	00120213          	addi	tp,tp,1 # 1 <_start+0x1>
 288:	00200293          	li	t0,2
 28c:	fe5210e3          	bne	tp,t0,26c <test_16+0x8>

00000290 <test_17>:
 290:	01100193          	li	gp,17
 294:	00000213          	li	tp,0
 298:	39000093          	li	ra,912
 29c:	00000013          	nop
 2a0:	00000013          	nop
 2a4:	00209703          	lh	a4,2(ra)
 2a8:	f0000393          	li	t2,-256
 2ac:	04771463          	bne	a4,t2,2f4 <fail>
 2b0:	00120213          	addi	tp,tp,1 # 1 <_start+0x1>
 2b4:	00200293          	li	t0,2
 2b8:	fe5210e3          	bne	tp,t0,298 <test_17+0x8>

000002bc <test_18>:
 2bc:	01200193          	li	gp,18
 2c0:	39000293          	li	t0,912
 2c4:	00029103          	lh	sp,0(t0)
 2c8:	00200113          	li	sp,2
 2cc:	00200393          	li	t2,2
 2d0:	02711263          	bne	sp,t2,2f4 <fail>

000002d4 <test_19>:
 2d4:	01300193          	li	gp,19
 2d8:	39000293          	li	t0,912
 2dc:	00029103          	lh	sp,0(t0)
 2e0:	00000013          	nop
 2e4:	00200113          	li	sp,2
 2e8:	00200393          	li	t2,2
 2ec:	00711463          	bne	sp,t2,2f4 <fail>
 2f0:	02301063          	bne	zero,gp,310 <pass>

000002f4 <fail>:
 2f4:	0ff0000f          	fence
 2f8:	00018063          	beqz	gp,2f8 <fail+0x4>
 2fc:	00119193          	slli	gp,gp,0x1
 300:	0011e193          	ori	gp,gp,1
 304:	05d00893          	li	a7,93
 308:	00018513          	mv	a0,gp
 30c:	00000073          	ecall

00000310 <pass>:
 310:	0ff0000f          	fence
 314:	00100193          	li	gp,1
 318:	05d00893          	li	a7,93
 31c:	00000513          	li	a0,0
 320:	00000073          	ecall
 324:	c0001073          	unimp
