
tests/upstream/binaries/lui.elf:     file format elf32-littleriscv


Disassembly of section .text.init:

00000000 <_start>:
   0:	00000093          	li	ra,0
   4:	00000113          	li	sp,0
   8:	00000193          	li	gp,0
   c:	00000213          	li	tp,0
  10:	00000293          	li	t0,0
  14:	00000313          	li	t1,0
  18:	00000393          	li	t2,0
  1c:	00000413          	li	s0,0
  20:	00000493          	li	s1,0
  24:	00000513          	li	a0,0
  28:	00000593          	li	a1,0
  2c:	00000613          	li	a2,0
  30:	00000693          	li	a3,0
  34:	00000713          	li	a4,0
  38:	00000793          	li	a5,0
  3c:	00000813          	li	a6,0
  40:	00000893          	li	a7,0
  44:	00000913          	li	s2,0
  48:	00000993          	li	s3,0
  4c:	00000a13          	li	s4,0
  50:	00000a93          	li	s5,0
  54:	00000b13          	li	s6,0
  58:	00000b93          	li	s7,0
  5c:	00000c13          	li	s8,0
  60:	00000c93          	li	s9,0
  64:	00000d13          	li	s10,0
  68:	00000d93          	li	s11,0
  6c:	00000e13          	li	t3,0
  70:	00000e93          	li	t4,0
  74:	00000f13          	li	t5,0
  78:	00000f93          	li	t6,0
  7c:	00000193          	li	gp,0
  80:	00100513          	li	a0,1
  84:	01f51513          	slli	a0,a0,0x1f
  88:	00054c63          	bltz	a0,a0 <test_2>
  8c:	0ff0000f          	fence
  90:	00100193          	li	gp,1
  94:	05d00893          	li	a7,93
  98:	00000513          	li	a0,0
  9c:	00000073          	ecall

000000a0 <test_2>:
  a0:	00200193          	li	gp,2
  a4:	000000b7          	lui	ra,0x0
  a8:	00000393          	li	t2,0
  ac:	04709a63          	bne	ra,t2,100 <fail>

000000b0 <test_3>:
  b0:	00300193          	li	gp,3
  b4:	fffff0b7          	lui	ra,0xfffff
  b8:	4010d093          	srai	ra,ra,0x1
  bc:	80000393          	li	t2,-2048
  c0:	04709063          	bne	ra,t2,100 <fail>

000000c4 <test_4>:
  c4:	00400193          	li	gp,4
  c8:	7ffff0b7          	lui	ra,0x7ffff
  cc:	4140d093          	srai	ra,ra,0x14
  d0:	7ff00393          	li	t2,2047
  d4:	02709663          	bne	ra,t2,100 <fail>

000000d8 <test_5>:
  d8:	00500193          	li	gp,5
  dc:	800000b7          	lui	ra,0x80000
  e0:	4140d093          	srai	ra,ra,0x14
  e4:	80000393          	li	t2,-2048
  e8:	00709c63          	bne	ra,t2,100 <fail>

000000ec <test_6>:
  ec:	00600193          	li	gp,6
  f0:	80000037          	lui	zero,0x80000
  f4:	00000393          	li	t2,0
  f8:	00701463          	bne	zero,t2,100 <fail>
  fc:	02301063          	bne	zero,gp,11c <pass>

00000100 <fail>:
 100:	0ff0000f          	fence
 104:	00018063          	beqz	gp,104 <fail+0x4>
 108:	00119193          	slli	gp,gp,0x1
 10c:	0011e193          	ori	gp,gp,1
 110:	05d00893          	li	a7,93
 114:	00018513          	mv	a0,gp
 118:	00000073          	ecall

0000011c <pass>:
 11c:	0ff0000f          	fence
 120:	00100193          	li	gp,1
 124:	05d00893          	li	a7,93
 128:	00000513          	li	a0,0
 12c:	00000073          	ecall
 130:	c0001073          	unimp
