
tests/upstream/binaries/lw.elf:     file format elf32-littleriscv


Disassembly of section .text.init:

00000000 <_start>:
   0:	00000093          	li	ra,0
   4:	00000113          	li	sp,0
   8:	00000193          	li	gp,0
   c:	00000213          	li	tp,0
  10:	00000293          	li	t0,0
  14:	00000313          	li	t1,0
  18:	00000393          	li	t2,0
  1c:	00000413          	li	s0,0
  20:	00000493          	li	s1,0
  24:	00000513          	li	a0,0
  28:	00000593          	li	a1,0
  2c:	00000613          	li	a2,0
  30:	00000693          	li	a3,0
  34:	00000713          	li	a4,0
  38:	00000793          	li	a5,0
  3c:	00000813          	li	a6,0
  40:	00000893          	li	a7,0
  44:	00000913          	li	s2,0
  48:	00000993          	li	s3,0
  4c:	00000a13          	li	s4,0
  50:	00000a93          	li	s5,0
  54:	00000b13          	li	s6,0
  58:	00000b93          	li	s7,0
  5c:	00000c13          	li	s8,0
  60:	00000c93          	li	s9,0
  64:	00000d13          	li	s10,0
  68:	00000d93          	li	s11,0
  6c:	00000e13          	li	t3,0
  70:	00000e93          	li	t4,0
  74:	00000f13          	li	t5,0
  78:	00000f93          	li	t6,0
  7c:	00000193          	li	gp,0
  80:	00100513          	li	a0,1
  84:	01f51513          	slli	a0,a0,0x1f
  88:	00054c63          	bltz	a0,a0 <test_2>
  8c:	0ff0000f          	fence
  90:	00100193          	li	gp,1
  94:	05d00893          	li	a7,93
  98:	00000513          	li	a0,0
  9c:	00000073          	ecall

000000a0 <test_2>:
  a0:	00200193          	li	gp,2
  a4:	00ff07b7          	lui	a5,0xff0
  a8:	0ff78793          	addi	a5,a5,255 # ff00ff <_end+0xfefd1f>
  ac:	3d000093          	li	ra,976
  b0:	0000a703          	lw	a4,0(ra)
  b4:	00ff03b7          	lui	t2,0xff0
  b8:	0ff38393          	addi	t2,t2,255 # ff00ff <_end+0xfefd1f>
  bc:	26771463          	bne	a4,t2,324 <fail>

000000c0 <test_3>:
  c0:	00300193          	li	gp,3
  c4:	ff0107b7          	lui	a5,0xff010
  c8:	f0078793          	addi	a5,a5,-256 # ff00ff00 <_end+0xff00fb20>
  cc:	3d000093          	li	ra,976
  d0:	0040a703          	lw	a4,4(ra)
  d4:	ff0103b7          	lui	t2,0xff010
  d8:	f0038393          	addi	t2,t2,-256 # ff00ff00 <_end+0xff00fb20>
  dc:	24771463          	bne	a4,t2,324 <fail>

000000e0 <test_4>:
  e0:	00400193          	li	gp,4
  e4:	0ff017b7          	lui	a5,0xff01
  e8:	ff078793          	addi	a5,a5,-16 # ff00ff0 <_end+0xff00c10>
  ec:	3d000093          	li	ra,976
  f0:	0080a703          	lw	a4,8(ra)
  f4:	0ff013b7          	lui	t2,0xff01
  f8:	ff038393          	addi	t2,t2,-16 # ff00ff0 <_end+0xff00c10>
  fc:	22771463          	bne	a4,t2,324 <fail>

00000100 <test_5>:
 100:	00500193          	li	gp,5
 104:	f00ff7b7          	lui	a5,0xf00ff
 108:	00f78793          	addi	a5,a5,15 # f00ff00f <_end+0xf00fec2f>
 10c:	3d000093          	li	ra,976
 110:	00c0a703          	lw	a4,12(ra)
 114:	f00ff3b7          	lui	t2,0xf00ff
 118:	00f38393          	addi	t2,t2,15 # f00ff00f <_end+0xf00fec2f>
 11c:	20771463          	bne	a4,t2,324 <fail>

00000120 <test_6>:
 120:	00600193          	li	gp,6
 124:	00ff07b7          	lui	a5,0xff0
 128:	0ff78793          	addi	a5,a5,255 # ff00ff <_end+0xfefd1f>
 12c:	3dc00093          	li	ra,988
 130:	ff40a703          	lw	a4,-12(ra)
 134:	00ff03b7          	lui	t2,0xff0
 138:	0ff38393          	addi	t2,t2,255 # ff00ff <_end+0xfefd1f>
 13c:	1e771463          	bne	a4,t2,324 <fail>

00000140 <test_7>:
 140:	00700193          	li	gp,7
 144:	ff0107b7          	lui	a5,0xff010
 148:	f0078793          	addi	a5,a5,-256 # ff00ff00 <_end+0xff00fb20>
 14c:	3dc00093          	li	ra,988
 150:	ff80a703          	lw	a4,-8(ra)
 154:	ff0103b7          	lui	t2,0xff010
 158:	f0038393          	addi	t2,t2,-256 # ff00ff00 <_end+0xff00fb20>
 15c:	1c771463          	bne	a4,t2,324 <fail>

00000160 <test_8>:
 160:	00800193          	li	gp,8
 164:	0ff017b7          	lui	a5,0xff01
 168:	ff078793          	addi	a5,a5,-16 # ff00ff0 <_end+0xff00c10>
 16c:	3dc00093          	li	ra,988
 170:	ffc0a703          	lw	a4,-4(ra)
 174:	0ff013b7          	lui	t2,0xff01
 178:	ff038393          	addi	t2,t2,-16 # ff00ff0 <_end+0xff00c10>
 17c:	1a771463          	bne	a4,t2,324 <fail>

00000180 <test_9>:
 180:	00900193          	li	gp,9
 184:	f00ff7b7          	lui	a5,0xf00ff
 188:	00f78793          	addi	a5,a5,15 # f00ff00f <_end+0xf00fec2f>
 18c:	3dc00093          	li	ra,988
 190:	0000a703          	lw	a4,0(ra)
 194:	f00ff3b7          	lui	t2,0xf00ff
 198:	00f38393          	addi	t2,t2,15 # f00ff00f <_end+0xf00fec2f>
 19c:	18771463          	bne	a4,t2,324 <fail>

000001a0 <test_10>:
 1a0:	00a00193          	li	gp,10
 1a4:	3d000093          	li	ra,976
 1a8:	fe008093          	addi	ra,ra,-32
 1ac:	0200a283          	lw	t0,32(ra)
 1b0:	00ff03b7          	lui	t2,0xff0
 1b4:	0ff38393          	addi	t2,t2,255 # ff00ff <_end+0xfefd1f>
 1b8:	16729663          	bne	t0,t2,324 <fail>

000001bc <test_11>:
 1bc:	00b00193          	li	gp,11
 1c0:	3d000093          	li	ra,976
 1c4:	ffd08093          	addi	ra,ra,-3
 1c8:	0070a283          	lw	t0,7(ra)
 1cc:	ff0103b7          	lui	t2,0xff010
 1d0:	f0038393          	addi	t2,t2,-256 # ff00ff00 <_end+0xff00fb20>
 1d4:	14729863          	bne	t0,t2,324 <fail>

000001d8 <test_12>:
 1d8:	00c00193          	li	gp,12
 1dc:	00000213          	li	tp,0
 1e0:	3d400093          	li	ra,980
 1e4:	0040a703          	lw	a4,4(ra)
 1e8:	00070313          	mv	t1,a4
 1ec:	0ff013b7          	lui	t2,0xff01
 1f0:	ff038393          	addi	t2,t2,-16 # ff00ff0 <_end+0xff00c10>
 1f4:	12731863          	bne	t1,t2,324 <fail>
 1f8:	00120213          	addi	tp,tp,1 # 1 <_start+0x1>
 1fc:	00200293          	li	t0,2
 200:	fe5210e3          	bne	tp,t0,1e0 <test_12+0x8>

00000204 <test_13>:
 204:	00d00193          	li	gp,13
 208:	00000213          	li	tp,0
 20c:	3d800093          	li	ra,984
 210:	0040a703          	lw	a4,4(ra)
 214:	00000013          	nop
 218:	00070313          	mv	t1,a4
 21c:	f00ff3b7          	lui	t2,0xf00ff
 220:	00f38393          	addi	t2,t2,15 # f00ff00f <_end+0xf00fec2f>
 224:	10731063          	bne	t1,t2,324 <fail>
 228:	00120213          	addi	tp,tp,1 # 1 <_start+0x1>
 22c:	00200293          	li	t0,2
 230:	fc521ee3          	bne	tp,t0,20c <test_13+0x8>

00000234 <test_14>:
 234:	00e00193          	li	gp,14
 238:	00000213          	li	tp,0
 23c:	3d000093          	li	ra,976
 240:	0040a703          	lw	a4,4(ra)
 244:	00000013          	nop
 248:	00000013          	nop
 24c:	00070313          	mv	t1,a4
 250:	ff0103b7          	lui	t2,0xff010
 254:	f0038393          	addi	t2,t2,-256 # ff00ff00 <_end+0xff00fb20>
 258:	0c731663          	bne	t1,t2,324 <fail>
 25c:	00120213          	addi	tp,tp,1 # 1 <_start+0x1>
 260:	00200293          	li	t0,2
 264:	fc521ce3          	bne	tp,t0,23c <test_14+0x8>

00000268 <test_15>:
 268:	00f00193          	li	gp,15
 26c:	00000213          	li	tp,0
 270:	3d400093          	li	ra,980
 274:	0040a703          	lw	a4,4(ra)
 278:	0ff013b7          	lui	t2,0xff01
 27c:	ff038393          	addi	t2,t2,-16 # ff00ff0 <_end+0xff00c10>
 280:	0a771263          	bne	a4,t2,324 <fail>
 284:	00120213          	addi	tp,tp,1 # 1 <_start+0x1>
 288:	00200293          	li	t0,2
 28c:	fe5212e3          	bne	tp,t0,270 <test_15+0x8>

00000290 <test_16>:
 290:	01000193          	li	gp,16
 294:	00000213          	li	tp,0
 298:	3d800093          	li	ra,984
 29c:	00000013          	nop
 2a0:	0040a703          	lw	a4,4(ra)
 2a4:	f00ff3b7          	lui	t2,0xf00ff
 2a8:	00f38393          	addi	t2,t2,15 # f00ff00f <_end+0xf00fec2f>
 2ac:	06771c63          	bne	a4,t2,324 <fail>
 2b0:	00120213          	addi	tp,tp,1 # 1 <_start+0x1>
 2b4:	00200293          	li	t0,2
 2b8:	fe5210e3          	bne	tp,t0,298 <test_16+0x8>

000002bc <test_17>:
 2bc:	01100193          	li	gp,17
 2c0:	00000213          	li	tp,0
 2c4:	3d000093          	li	ra,976
 2c8:	00000013          	nop
 2cc:	00000013          	nop
 2d0:	0040a703          	lw	a4,4(ra)
 2d4:	ff0103b7          	lui	t2,0xff010
 2d8:	f0038393          	addi	t2,t2,-256 # ff00ff00 <_end+0xff00fb20>
 2dc:	04771463          	bne	a4,t2,324 <fail>
 2e0:	00120213          	addi	tp,tp,1 # 1 <_start+0x1>
 2e4:	00200293          	li	t0,2
 2e8:	fc521ee3          	bne	tp,t0,2c4 <test_17+0x8>

000002ec <test_18>:
 2ec:	01200193          	li	gp,18
 2f0:	3d000293          	li	t0,976
 2f4:	0002a103          	lw	sp,0(t0)
 2f8:	00200113          	li	sp,2
 2fc:	00200393          	li	t2,2
 300:	02711263          	bne	sp,t2,324 <fail>

00000304 <test_19>:
 304:	01300193          	li	gp,19
 308:	3d000293          	li	t0,976
 30c:	0002a103          	lw	sp,0(t0)
 310:	00000013          	nop
 314:	00200113          	li	sp,2
 318:	00200393          	li	t2,2
 31c:	00711463          	bne	sp,t2,324 <fail>
 320:	02301063          	bne	zero,gp,340 <pass>

00000324 <fail>:
 324:	0ff0000f          	fence
 328:	00018063          	beqz	gp,328 <fail+0x4>
 32c:	00119193          	slli	gp,gp,0x1
 330:	0011e193          	ori	gp,gp,1
 334:	05d00893          	li	a7,93
 338:	00018513          	mv	a0,gp
 33c:	00000073          	ecall

00000340 <pass>:
 340:	0ff0000f          	fence
 344:	00100193          	li	gp,1
 348:	05d00893          	li	a7,93
 34c:	00000513          	li	a0,0
 350:	00000073          	ecall
 354:	c0001073          	unimp
