
tests/upstream/binaries/or.elf:     file format elf32-littleriscv


Disassembly of section .text.init:

00000000 <_start>:
   0:	00000093          	li	ra,0
   4:	00000113          	li	sp,0
   8:	00000193          	li	gp,0
   c:	00000213          	li	tp,0
  10:	00000293          	li	t0,0
  14:	00000313          	li	t1,0
  18:	00000393          	li	t2,0
  1c:	00000413          	li	s0,0
  20:	00000493          	li	s1,0
  24:	00000513          	li	a0,0
  28:	00000593          	li	a1,0
  2c:	00000613          	li	a2,0
  30:	00000693          	li	a3,0
  34:	00000713          	li	a4,0
  38:	00000793          	li	a5,0
  3c:	00000813          	li	a6,0
  40:	00000893          	li	a7,0
  44:	00000913          	li	s2,0
  48:	00000993          	li	s3,0
  4c:	00000a13          	li	s4,0
  50:	00000a93          	li	s5,0
  54:	00000b13          	li	s6,0
  58:	00000b93          	li	s7,0
  5c:	00000c13          	li	s8,0
  60:	00000c93          	li	s9,0
  64:	00000d13          	li	s10,0
  68:	00000d93          	li	s11,0
  6c:	00000e13          	li	t3,0
  70:	00000e93          	li	t4,0
  74:	00000f13          	li	t5,0
  78:	00000f93          	li	t6,0
  7c:	00000193          	li	gp,0
  80:	00100513          	li	a0,1
  84:	01f51513          	slli	a0,a0,0x1f
  88:	00054c63          	bltz	a0,a0 <test_2>
  8c:	0ff0000f          	fence
  90:	00100193          	li	gp,1
  94:	05d00893          	li	a7,93
  98:	00000513          	li	a0,0
  9c:	00000073          	ecall

000000a0 <test_2>:
  a0:	00200193          	li	gp,2
  a4:	ff0100b7          	lui	ra,0xff010
  a8:	f0008093          	addi	ra,ra,-256 # ff00ff00 <_end+0xff00f8f0>
  ac:	0f0f1137          	lui	sp,0xf0f1
  b0:	f0f10113          	addi	sp,sp,-241 # f0f0f0f <_end+0xf0f08ff>
  b4:	0020e733          	or	a4,ra,sp
  b8:	ff1003b7          	lui	t2,0xff100
  bc:	f0f38393          	addi	t2,t2,-241 # ff0fff0f <_end+0xff0ff8ff>
  c0:	4a771263          	bne	a4,t2,564 <fail>

000000c4 <test_3>:
  c4:	00300193          	li	gp,3
  c8:	0ff010b7          	lui	ra,0xff01
  cc:	ff008093          	addi	ra,ra,-16 # ff00ff0 <_end+0xff009e0>
  d0:	f0f0f137          	lui	sp,0xf0f0f
  d4:	0f010113          	addi	sp,sp,240 # f0f0f0f0 <_end+0xf0f0eae0>
  d8:	0020e733          	or	a4,ra,sp
  dc:	fff103b7          	lui	t2,0xfff10
  e0:	ff038393          	addi	t2,t2,-16 # fff0fff0 <_end+0xfff0f9e0>
  e4:	48771063          	bne	a4,t2,564 <fail>

000000e8 <test_4>:
  e8:	00400193          	li	gp,4
  ec:	00ff00b7          	lui	ra,0xff0
  f0:	0ff08093          	addi	ra,ra,255 # ff00ff <_end+0xfefaef>
  f4:	0f0f1137          	lui	sp,0xf0f1
  f8:	f0f10113          	addi	sp,sp,-241 # f0f0f0f <_end+0xf0f08ff>
  fc:	0020e733          	or	a4,ra,sp
 100:	0fff13b7          	lui	t2,0xfff1
 104:	fff38393          	addi	t2,t2,-1 # fff0fff <_end+0xfff09ef>
 108:	44771e63          	bne	a4,t2,564 <fail>

0000010c <test_5>:
 10c:	00500193          	li	gp,5
 110:	f00ff0b7          	lui	ra,0xf00ff
 114:	00f08093          	addi	ra,ra,15 # f00ff00f <_end+0xf00fe9ff>
 118:	f0f0f137          	lui	sp,0xf0f0f
 11c:	0f010113          	addi	sp,sp,240 # f0f0f0f0 <_end+0xf0f0eae0>
 120:	0020e733          	or	a4,ra,sp
 124:	f0fff3b7          	lui	t2,0xf0fff
 128:	0ff38393          	addi	t2,t2,255 # f0fff0ff <_end+0xf0ffeaef>
 12c:	42771c63          	bne	a4,t2,564 <fail>

00000130 <test_6>:
 130:	00600193          	li	gp,6
 134:	ff0100b7          	lui	ra,0xff010
 138:	f0008093          	addi	ra,ra,-256 # ff00ff00 <_end+0xff00f8f0>
 13c:	0f0f1137          	lui	sp,0xf0f1
 140:	f0f10113          	addi	sp,sp,-241 # f0f0f0f <_end+0xf0f08ff>
 144:	0020e0b3          	or	ra,ra,sp
 148:	ff1003b7          	lui	t2,0xff100
 14c:	f0f38393          	addi	t2,t2,-241 # ff0fff0f <_end+0xff0ff8ff>
 150:	40709a63          	bne	ra,t2,564 <fail>

00000154 <test_7>:
 154:	00700193          	li	gp,7
 158:	ff0100b7          	lui	ra,0xff010
 15c:	f0008093          	addi	ra,ra,-256 # ff00ff00 <_end+0xff00f8f0>
 160:	0f0f1137          	lui	sp,0xf0f1
 164:	f0f10113          	addi	sp,sp,-241 # f0f0f0f <_end+0xf0f08ff>
 168:	0020e133          	or	sp,ra,sp
 16c:	ff1003b7          	lui	t2,0xff100
 170:	f0f38393          	addi	t2,t2,-241 # ff0fff0f <_end+0xff0ff8ff>
 174:	3e711863          	bne	sp,t2,564 <fail>

00000178 <test_8>:
 178:	00800193          	li	gp,8
 17c:	ff0100b7          	lui	ra,0xff010
 180:	f0008093          	addi	ra,ra,-256 # ff00ff00 <_end+0xff00f8f0>
 184:	0010e0b3          	or	ra,ra,ra
 188:	ff0103b7          	lui	t2,0xff010
 18c:	f0038393          	addi	t2,t2,-256 # ff00ff00 <_end+0xff00f8f0>
 190:	3c709a63          	bne	ra,t2,564 <fail>

00000194 <test_9>:
 194:	00900193          	li	gp,9
 198:	00000213          	li	tp,0
 19c:	ff0100b7          	lui	ra,0xff010
 1a0:	f0008093          	addi	ra,ra,-256 # ff00ff00 <_end+0xff00f8f0>
 1a4:	0f0f1137          	lui	sp,0xf0f1
 1a8:	f0f10113          	addi	sp,sp,-241 # f0f0f0f <_end+0xf0f08ff>
 1ac:	0020e733          	or	a4,ra,sp
 1b0:	00070313          	mv	t1,a4
 1b4:	00120213          	addi	tp,tp,1 # 1 <_start+0x1>
 1b8:	00200293          	li	t0,2
 1bc:	fe5210e3          	bne	tp,t0,19c <test_9+0x8>
 1c0:	ff1003b7          	lui	t2,0xff100
 1c4:	f0f38393          	addi	t2,t2,-241 # ff0fff0f <_end+0xff0ff8ff>
 1c8:	38731e63          	bne	t1,t2,564 <fail>

000001cc <test_10>:
 1cc:	00a00193          	li	gp,10
 1d0:	00000213          	li	tp,0
 1d4:	0ff010b7          	lui	ra,0xff01
 1d8:	ff008093          	addi	ra,ra,-16 # ff00ff0 <_end+0xff009e0>
 1dc:	f0f0f137          	lui	sp,0xf0f0f
 1e0:	0f010113          	addi	sp,sp,240 # f0f0f0f0 <_end+0xf0f0eae0>
 1e4:	0020e733          	or	a4,ra,sp
 1e8:	00000013          	nop
 1ec:	00070313          	mv	t1,a4
 1f0:	00120213          	addi	tp,tp,1 # 1 <_start+0x1>
 1f4:	00200293          	li	t0,2
 1f8:	fc521ee3          	bne	tp,t0,1d4 <test_10+0x8>
 1fc:	fff103b7          	lui	t2,0xfff10
 200:	ff038393          	addi	t2,t2,-16 # fff0fff0 <_end+0xfff0f9e0>
 204:	36731063          	bne	t1,t2,564 <fail>

00000208 <test_11>:
 208:	00b00193          	li	gp,11
 20c:	00000213          	li	tp,0
 210:	00ff00b7          	lui	ra,0xff0
 214:	0ff08093          	addi	ra,ra,255 # ff00ff <_end+0xfefaef>
 218:	0f0f1137          	lui	sp,0xf0f1
 21c:	f0f10113          	addi	sp,sp,-241 # f0f0f0f <_end+0xf0f08ff>
 220:	0020e733          	or	a4,ra,sp
 224:	00000013          	nop
 228:	00000013          	nop
 22c:	00070313          	mv	t1,a4
 230:	00120213          	addi	tp,tp,1 # 1 <_start+0x1>
 234:	00200293          	li	t0,2
 238:	fc521ce3          	bne	tp,t0,210 <test_11+0x8>
 23c:	0fff13b7          	lui	t2,0xfff1
 240:	fff38393          	addi	t2,t2,-1 # fff0fff <_end+0xfff09ef>
 244:	32731063          	bne	t1,t2,564 <fail>

00000248 <test_12>:
 248:	00c00193          	li	gp,12
 24c:	00000213          	li	tp,0
 250:	ff0100b7          	lui	ra,0xff010
 254:	f0008093          	addi	ra,ra,-256 # ff00ff00 <_end+0xff00f8f0>
 258:	0f0f1137          	lui	sp,0xf0f1
 25c:	f0f10113          	addi	sp,sp,-241 # f0f0f0f <_end+0xf0f08ff>
 260:	0020e733          	or	a4,ra,sp
 264:	00120213          	addi	tp,tp,1 # 1 <_start+0x1>
 268:	00200293          	li	t0,2
 26c:	fe5212e3          	bne	tp,t0,250 <test_12+0x8>
 270:	ff1003b7          	lui	t2,0xff100
 274:	f0f38393          	addi	t2,t2,-241 # ff0fff0f <_end+0xff0ff8ff>
 278:	2e771663          	bne	a4,t2,564 <fail>

0000027c <test_13>:
 27c:	00d00193          	li	gp,13
 280:	00000213          	li	tp,0
 284:	0ff010b7          	lui	ra,0xff01
 288:	ff008093          	addi	ra,ra,-16 # ff00ff0 <_end+0xff009e0>
 28c:	f0f0f137          	lui	sp,0xf0f0f
 290:	0f010113          	addi	sp,sp,240 # f0f0f0f0 <_end+0xf0f0eae0>
 294:	00000013          	nop
 298:	0020e733          	or	a4,ra,sp
 29c:	00120213          	addi	tp,tp,1 # 1 <_start+0x1>
 2a0:	00200293          	li	t0,2
 2a4:	fe5210e3          	bne	tp,t0,284 <test_13+0x8>
 2a8:	fff103b7          	lui	t2,0xfff10
 2ac:	ff038393          	addi	t2,t2,-16 # fff0fff0 <_end+0xfff0f9e0>
 2b0:	2a771a63          	bne	a4,t2,564 <fail>

000002b4 <test_14>:
 2b4:	00e00193          	li	gp,14
 2b8:	00000213          	li	tp,0
 2bc:	00ff00b7          	lui	ra,0xff0
 2c0:	0ff08093          	addi	ra,ra,255 # ff00ff <_end+0xfefaef>
 2c4:	0f0f1137          	lui	sp,0xf0f1
 2c8:	f0f10113          	addi	sp,sp,-241 # f0f0f0f <_end+0xf0f08ff>
 2cc:	00000013          	nop
 2d0:	00000013          	nop
 2d4:	0020e733          	or	a4,ra,sp
 2d8:	00120213          	addi	tp,tp,1 # 1 <_start+0x1>
 2dc:	00200293          	li	t0,2
 2e0:	fc521ee3          	bne	tp,t0,2bc <test_14+0x8>
 2e4:	0fff13b7          	lui	t2,0xfff1
 2e8:	fff38393          	addi	t2,t2,-1 # fff0fff <_end+0xfff09ef>
 2ec:	26771c63          	bne	a4,t2,564 <fail>

000002f0 <test_15>:
 2f0:	00f00193          	li	gp,15
 2f4:	00000213          	li	tp,0
 2f8:	ff0100b7          	lui	ra,0xff010
 2fc:	f0008093          	addi	ra,ra,-256 # ff00ff00 <_end+0xff00f8f0>
 300:	00000013          	nop
 304:	0f0f1137          	lui	sp,0xf0f1
 308:	f0f10113          	addi	sp,sp,-241 # f0f0f0f <_end+0xf0f08ff>
 30c:	0020e733          	or	a4,ra,sp
 310:	00120213          	addi	tp,tp,1 # 1 <_start+0x1>
 314:	00200293          	li	t0,2
 318:	fe5210e3          	bne	tp,t0,2f8 <test_15+0x8>
 31c:	ff1003b7          	lui	t2,0xff100
 320:	f0f38393          	addi	t2,t2,-241 # ff0fff0f <_end+0xff0ff8ff>
 324:	24771063          	bne	a4,t2,564 <fail>

00000328 <test_16>:
 328:	01000193          	li	gp,16
 32c:	00000213          	li	tp,0
 330:	0ff010b7          	lui	ra,0xff01
 334:	ff008093          	addi	ra,ra,-16 # ff00ff0 <_end+0xff009e0>
 338:	00000013          	nop
 33c:	f0f0f137          	lui	sp,0xf0f0f
 340:	0f010113          	addi	sp,sp,240 # f0f0f0f0 <_end+0xf0f0eae0>
 344:	00000013          	nop
 348:	0020e733          	or	a4,ra,sp
 34c:	00120213          	addi	tp,tp,1 # 1 <_start+0x1>
 350:	00200293          	li	t0,2
 354:	fc521ee3          	bne	tp,t0,330 <test_16+0x8>
 358:	fff103b7          	lui	t2,0xfff10
 35c:	ff038393          	addi	t2,t2,-16 # fff0fff0 <_end+0xfff0f9e0>
 360:	20771263          	bne	a4,t2,564 <fail>

00000364 <test_17>:
 364:	01100193          	li	gp,17
 368:	00000213          	li	tp,0
 36c:	00ff00b7          	lui	ra,0xff0
 370:	0ff08093          	addi	ra,ra,255 # ff00ff <_end+0xfefaef>
 374:	00000013          	nop
 378:	00000013          	nop
 37c:	0f0f1137          	lui	sp,0xf0f1
 380:	f0f10113          	addi	sp,sp,-241 # f0f0f0f <_end+0xf0f08ff>
 384:	0020e733          	or	a4,ra,sp
 388:	00120213          	addi	tp,tp,1 # 1 <_start+0x1>
 38c:	00200293          	li	t0,2
 390:	fc521ee3          	bne	tp,t0,36c <test_17+0x8>
 394:	0fff13b7          	lui	t2,0xfff1
 398:	fff38393          	addi	t2,t2,-1 # fff0fff <_end+0xfff09ef>
 39c:	1c771463          	bne	a4,t2,564 <fail>

000003a0 <test_18>:
 3a0:	01200193          	li	gp,18
 3a4:	00000213          	li	tp,0
 3a8:	0f0f1137          	lui	sp,0xf0f1
 3ac:	f0f10113          	addi	sp,sp,-241 # f0f0f0f <_end+0xf0f08ff>
 3b0:	ff0100b7          	lui	ra,0xff010
 3b4:	f0008093          	addi	ra,ra,-256 # ff00ff00 <_end+0xff00f8f0>
 3b8:	0020e733          	or	a4,ra,sp
 3bc:	00120213          	addi	tp,tp,1 # 1 <_start+0x1>
 3c0:	00200293          	li	t0,2
 3c4:	fe5212e3          	bne	tp,t0,3a8 <test_18+0x8>
 3c8:	ff1003b7          	lui	t2,0xff100
 3cc:	f0f38393          	addi	t2,t2,-241 # ff0fff0f <_end+0xff0ff8ff>
 3d0:	18771a63          	bne	a4,t2,564 <fail>

000003d4 <test_19>:
 3d4:	01300193          	li	gp,19
 3d8:	00000213          	li	tp,0
 3dc:	f0f0f137          	lui	sp,0xf0f0f
 3e0:	0f010113          	addi	sp,sp,240 # f0f0f0f0 <_end+0xf0f0eae0>
 3e4:	0ff010b7          	lui	ra,0xff01
 3e8:	ff008093          	addi	ra,ra,-16 # ff00ff0 <_end+0xff009e0>
 3ec:	00000013          	nop
 3f0:	0020e733          	or	a4,ra,sp
 3f4:	00120213          	addi	tp,tp,1 # 1 <_start+0x1>
 3f8:	00200293          	li	t0,2
 3fc:	fe5210e3          	bne	tp,t0,3dc <test_19+0x8>
 400:	fff103b7          	lui	t2,0xfff10
 404:	ff038393          	addi	t2,t2,-16 # fff0fff0 <_end+0xfff0f9e0>
 408:	14771e63          	bne	a4,t2,564 <fail>

0000040c <test_20>:
 40c:	01400193          	li	gp,20
 410:	00000213          	li	tp,0
 414:	0f0f1137          	lui	sp,0xf0f1
 418:	f0f10113          	addi	sp,sp,-241 # f0f0f0f <_end+0xf0f08ff>
 41c:	00ff00b7          	lui	ra,0xff0
 420:	0ff08093          	addi	ra,ra,255 # ff00ff <_end+0xfefaef>
 424:	00000013          	nop
 428:	00000013          	nop
 42c:	0020e733          	or	a4,ra,sp
 430:	00120213          	addi	tp,tp,1 # 1 <_start+0x1>
 434:	00200293          	li	t0,2
 438:	fc521ee3          	bne	tp,t0,414 <test_20+0x8>
 43c:	0fff13b7          	lui	t2,0xfff1
 440:	fff38393          	addi	t2,t2,-1 # fff0fff <_end+0xfff09ef>
 444:	12771063          	bne	a4,t2,564 <fail>

00000448 <test_21>:
 448:	01500193          	li	gp,21
 44c:	00000213          	li	tp,0
 450:	0f0f1137          	lui	sp,0xf0f1
 454:	f0f10113          	addi	sp,sp,-241 # f0f0f0f <_end+0xf0f08ff>
 458:	00000013          	nop
 45c:	ff0100b7          	lui	ra,0xff010
 460:	f0008093          	addi	ra,ra,-256 # ff00ff00 <_end+0xff00f8f0>
 464:	0020e733          	or	a4,ra,sp
 468:	00120213          	addi	tp,tp,1 # 1 <_start+0x1>
 46c:	00200293          	li	t0,2
 470:	fe5210e3          	bne	tp,t0,450 <test_21+0x8>
 474:	ff1003b7          	lui	t2,0xff100
 478:	f0f38393          	addi	t2,t2,-241 # ff0fff0f <_end+0xff0ff8ff>
 47c:	0e771463          	bne	a4,t2,564 <fail>

00000480 <test_22>:
 480:	01600193          	li	gp,22
 484:	00000213          	li	tp,0
 488:	f0f0f137          	lui	sp,0xf0f0f
 48c:	0f010113          	addi	sp,sp,240 # f0f0f0f0 <_end+0xf0f0eae0>
 490:	00000013          	nop
 494:	0ff010b7          	lui	ra,0xff01
 498:	ff008093          	addi	ra,ra,-16 # ff00ff0 <_end+0xff009e0>
 49c:	00000013          	nop
 4a0:	0020e733          	or	a4,ra,sp
 4a4:	00120213          	addi	tp,tp,1 # 1 <_start+0x1>
 4a8:	00200293          	li	t0,2
 4ac:	fc521ee3          	bne	tp,t0,488 <test_22+0x8>
 4b0:	fff103b7          	lui	t2,0xfff10
 4b4:	ff038393          	addi	t2,t2,-16 # fff0fff0 <_end+0xfff0f9e0>
 4b8:	0a771663          	bne	a4,t2,564 <fail>

000004bc <test_23>:
 4bc:	01700193          	li	gp,23
 4c0:	00000213          	li	tp,0
 4c4:	0f0f1137          	lui	sp,0xf0f1
 4c8:	f0f10113          	addi	sp,sp,-241 # f0f0f0f <_end+0xf0f08ff>
 4cc:	00000013          	nop
 4d0:	00000013          	nop
 4d4:	00ff00b7          	lui	ra,0xff0
 4d8:	0ff08093          	addi	ra,ra,255 # ff00ff <_end+0xfefaef>
 4dc:	0020e733          	or	a4,ra,sp
 4e0:	00120213          	addi	tp,tp,1 # 1 <_start+0x1>
 4e4:	00200293          	li	t0,2
 4e8:	fc521ee3          	bne	tp,t0,4c4 <test_23+0x8>
 4ec:	0fff13b7          	lui	t2,0xfff1
 4f0:	fff38393          	addi	t2,t2,-1 # fff0fff <_end+0xfff09ef>
 4f4:	06771863          	bne	a4,t2,564 <fail>

000004f8 <test_24>:
 4f8:	01800193          	li	gp,24
 4fc:	ff0100b7          	lui	ra,0xff010
 500:	f0008093          	addi	ra,ra,-256 # ff00ff00 <_end+0xff00f8f0>
 504:	00106133          	or	sp,zero,ra
 508:	ff0103b7          	lui	t2,0xff010
 50c:	f0038393          	addi	t2,t2,-256 # ff00ff00 <_end+0xff00f8f0>
 510:	04711a63          	bne	sp,t2,564 <fail>

00000514 <test_25>:
 514:	01900193          	li	gp,25
 518:	00ff00b7          	lui	ra,0xff0
 51c:	0ff08093          	addi	ra,ra,255 # ff00ff <_end+0xfefaef>
 520:	0000e133          	or	sp,ra,zero
 524:	00ff03b7          	lui	t2,0xff0
 528:	0ff38393          	addi	t2,t2,255 # ff00ff <_end+0xfefaef>
 52c:	02711c63          	bne	sp,t2,564 <fail>

00000530 <test_26>:
 530:	01a00193          	li	gp,26
 534:	000060b3          	or	ra,zero,zero
 538:	00000393          	li	t2,0
 53c:	02709463          	bne	ra,t2,564 <fail>

00000540 <test_27>:
 540:	01b00193          	li	gp,27
 544:	111110b7          	lui	ra,0x11111
 548:	11108093          	addi	ra,ra,273 # 11111111 <_end+0x11110b01>
 54c:	22222137          	lui	sp,0x22222
 550:	22210113          	addi	sp,sp,546 # 22222222 <_end+0x22221c12>
 554:	0020e033          	or	zero,ra,sp
 558:	00000393          	li	t2,0
 55c:	00701463          	bne	zero,t2,564 <fail>
 560:	02301063          	bne	zero,gp,580 <pass>

00000564 <fail>:
 564:	0ff0000f          	fence
 568:	00018063          	beqz	gp,568 <fail+0x4>
 56c:	00119193          	slli	gp,gp,0x1
 570:	0011e193          	ori	gp,gp,1
 574:	05d00893          	li	a7,93
 578:	00018513          	mv	a0,gp
 57c:	00000073          	ecall

00000580 <pass>:
 580:	0ff0000f          	fence
 584:	00100193          	li	gp,1
 588:	05d00893          	li	a7,93
 58c:	00000513          	li	a0,0
 590:	00000073          	ecall
 594:	c0001073          	unimp
