
tests/upstream/binaries/ori.elf:     file format elf32-littleriscv


Disassembly of section .text.init:

00000000 <_start>:
   0:	00000093          	li	ra,0
   4:	00000113          	li	sp,0
   8:	00000193          	li	gp,0
   c:	00000213          	li	tp,0
  10:	00000293          	li	t0,0
  14:	00000313          	li	t1,0
  18:	00000393          	li	t2,0
  1c:	00000413          	li	s0,0
  20:	00000493          	li	s1,0
  24:	00000513          	li	a0,0
  28:	00000593          	li	a1,0
  2c:	00000613          	li	a2,0
  30:	00000693          	li	a3,0
  34:	00000713          	li	a4,0
  38:	00000793          	li	a5,0
  3c:	00000813          	li	a6,0
  40:	00000893          	li	a7,0
  44:	00000913          	li	s2,0
  48:	00000993          	li	s3,0
  4c:	00000a13          	li	s4,0
  50:	00000a93          	li	s5,0
  54:	00000b13          	li	s6,0
  58:	00000b93          	li	s7,0
  5c:	00000c13          	li	s8,0
  60:	00000c93          	li	s9,0
  64:	00000d13          	li	s10,0
  68:	00000d93          	li	s11,0
  6c:	00000e13          	li	t3,0
  70:	00000e93          	li	t4,0
  74:	00000f13          	li	t5,0
  78:	00000f93          	li	t6,0
  7c:	00000193          	li	gp,0
  80:	00100513          	li	a0,1
  84:	01f51513          	slli	a0,a0,0x1f
  88:	00054c63          	bltz	a0,a0 <test_2>
  8c:	0ff0000f          	fence
  90:	00100193          	li	gp,1
  94:	05d00893          	li	a7,93
  98:	00000513          	li	a0,0
  9c:	00000073          	ecall

000000a0 <test_2>:
  a0:	00200193          	li	gp,2
  a4:	ff0100b7          	lui	ra,0xff010
  a8:	f0008093          	addi	ra,ra,-256 # ff00ff00 <_end+0xff00fbf0>
  ac:	f0f0e713          	ori	a4,ra,-241
  b0:	f0f00393          	li	t2,-241
  b4:	1c771463          	bne	a4,t2,27c <fail>

000000b8 <test_3>:
  b8:	00300193          	li	gp,3
  bc:	0ff010b7          	lui	ra,0xff01
  c0:	ff008093          	addi	ra,ra,-16 # ff00ff0 <_end+0xff00ce0>
  c4:	0f00e713          	ori	a4,ra,240
  c8:	0ff013b7          	lui	t2,0xff01
  cc:	ff038393          	addi	t2,t2,-16 # ff00ff0 <_end+0xff00ce0>
  d0:	1a771663          	bne	a4,t2,27c <fail>

000000d4 <test_4>:
  d4:	00400193          	li	gp,4
  d8:	00ff00b7          	lui	ra,0xff0
  dc:	0ff08093          	addi	ra,ra,255 # ff00ff <_end+0xfefdef>
  e0:	70f0e713          	ori	a4,ra,1807
  e4:	00ff03b7          	lui	t2,0xff0
  e8:	7ff38393          	addi	t2,t2,2047 # ff07ff <_end+0xff04ef>
  ec:	18771863          	bne	a4,t2,27c <fail>

000000f0 <test_5>:
  f0:	00500193          	li	gp,5
  f4:	f00ff0b7          	lui	ra,0xf00ff
  f8:	00f08093          	addi	ra,ra,15 # f00ff00f <_end+0xf00fecff>
  fc:	0f00e713          	ori	a4,ra,240
 100:	f00ff3b7          	lui	t2,0xf00ff
 104:	0ff38393          	addi	t2,t2,255 # f00ff0ff <_end+0xf00fedef>
 108:	16771a63          	bne	a4,t2,27c <fail>

0000010c <test_6>:
 10c:	00600193          	li	gp,6
 110:	ff0100b7          	lui	ra,0xff010
 114:	f0008093          	addi	ra,ra,-256 # ff00ff00 <_end+0xff00fbf0>
 118:	0f00e093          	ori	ra,ra,240
 11c:	ff0103b7          	lui	t2,0xff010
 120:	ff038393          	addi	t2,t2,-16 # ff00fff0 <_end+0xff00fce0>
 124:	14709c63          	bne	ra,t2,27c <fail>

00000128 <test_7>:
 128:	00700193          	li	gp,7
 12c:	00000213          	li	tp,0
 130:	0ff010b7          	lui	ra,0xff01
 134:	ff008093          	addi	ra,ra,-16 # ff00ff0 <_end+0xff00ce0>
 138:	0f00e713          	ori	a4,ra,240
 13c:	00070313          	mv	t1,a4
 140:	00120213          	addi	tp,tp,1 # 1 <_start+0x1>
 144:	00200293          	li	t0,2
 148:	fe5214e3          	bne	tp,t0,130 <test_7+0x8>
 14c:	0ff013b7          	lui	t2,0xff01
 150:	ff038393          	addi	t2,t2,-16 # ff00ff0 <_end+0xff00ce0>
 154:	12731463          	bne	t1,t2,27c <fail>

00000158 <test_8>:
 158:	00800193          	li	gp,8
 15c:	00000213          	li	tp,0
 160:	00ff00b7          	lui	ra,0xff0
 164:	0ff08093          	addi	ra,ra,255 # ff00ff <_end+0xfefdef>
 168:	70f0e713          	ori	a4,ra,1807
 16c:	00000013          	nop
 170:	00070313          	mv	t1,a4
 174:	00120213          	addi	tp,tp,1 # 1 <_start+0x1>
 178:	00200293          	li	t0,2
 17c:	fe5212e3          	bne	tp,t0,160 <test_8+0x8>
 180:	00ff03b7          	lui	t2,0xff0
 184:	7ff38393          	addi	t2,t2,2047 # ff07ff <_end+0xff04ef>
 188:	0e731a63          	bne	t1,t2,27c <fail>

0000018c <test_9>:
 18c:	00900193          	li	gp,9
 190:	00000213          	li	tp,0
 194:	f00ff0b7          	lui	ra,0xf00ff
 198:	00f08093          	addi	ra,ra,15 # f00ff00f <_end+0xf00fecff>
 19c:	0f00e713          	ori	a4,ra,240
 1a0:	00000013          	nop
 1a4:	00000013          	nop
 1a8:	00070313          	mv	t1,a4
 1ac:	00120213          	addi	tp,tp,1 # 1 <_start+0x1>
 1b0:	00200293          	li	t0,2
 1b4:	fe5210e3          	bne	tp,t0,194 <test_9+0x8>
 1b8:	f00ff3b7          	lui	t2,0xf00ff
 1bc:	0ff38393          	addi	t2,t2,255 # f00ff0ff <_end+0xf00fedef>
 1c0:	0a731e63          	bne	t1,t2,27c <fail>

000001c4 <test_10>:
 1c4:	00a00193          	li	gp,10
 1c8:	00000213          	li	tp,0
 1cc:	0ff010b7          	lui	ra,0xff01
 1d0:	ff008093          	addi	ra,ra,-16 # ff00ff0 <_end+0xff00ce0>
 1d4:	0f00e713          	ori	a4,ra,240
 1d8:	00120213          	addi	tp,tp,1 # 1 <_start+0x1>
 1dc:	00200293          	li	t0,2
 1e0:	fe5216e3          	bne	tp,t0,1cc <test_10+0x8>
 1e4:	0ff013b7          	lui	t2,0xff01
 1e8:	ff038393          	addi	t2,t2,-16 # ff00ff0 <_end+0xff00ce0>
 1ec:	08771863          	bne	a4,t2,27c <fail>

000001f0 <test_11>:
 1f0:	00b00193          	li	gp,11
 1f4:	00000213          	li	tp,0
 1f8:	00ff00b7          	lui	ra,0xff0
 1fc:	0ff08093          	addi	ra,ra,255 # ff00ff <_end+0xfefdef>
 200:	00000013          	nop
 204:	f0f0e713          	ori	a4,ra,-241
 208:	00120213          	addi	tp,tp,1 # 1 <_start+0x1>
 20c:	00200293          	li	t0,2
 210:	fe5214e3          	bne	tp,t0,1f8 <test_11+0x8>
 214:	fff00393          	li	t2,-1
 218:	06771263          	bne	a4,t2,27c <fail>

0000021c <test_12>:
 21c:	00c00193          	li	gp,12
 220:	00000213          	li	tp,0
 224:	f00ff0b7          	lui	ra,0xf00ff
 228:	00f08093          	addi	ra,ra,15 # f00ff00f <_end+0xf00fecff>
 22c:	00000013          	nop
 230:	00000013          	nop
 234:	0f00e713          	ori	a4,ra,240
 238:	00120213          	addi	tp,tp,1 # 1 <_start+0x1>
 23c:	00200293          	li	t0,2
 240:	fe5212e3          	bne	tp,t0,224 <test_12+0x8>
 244:	f00ff3b7          	lui	t2,0xf00ff
 248:	0ff38393          	addi	t2,t2,255 # f00ff0ff <_end+0xf00fedef>
 24c:	02771863          	bne	a4,t2,27c <fail>

00000250 <test_13>:
 250:	00d00193          	li	gp,13
 254:	0f006093          	ori	ra,zero,240
 258:	0f000393          	li	t2,240
 25c:	02709063          	bne	ra,t2,27c <fail>

00000260 <test_14>:
 260:	00e00193          	li	gp,14
 264:	00ff00b7          	lui	ra,0xff0
 268:	0ff08093          	addi	ra,ra,255 # ff00ff <_end+0xfefdef>
 26c:	70f0e013          	ori	zero,ra,1807
 270:	00000393          	li	t2,0
 274:	00701463          	bne	zero,t2,27c <fail>
 278:	02301063          	bne	zero,gp,298 <pass>

0000027c <fail>:
 27c:	0ff0000f          	fence
 280:	00018063          	beqz	gp,280 <fail+0x4>
 284:	00119193          	slli	gp,gp,0x1
 288:	0011e193          	ori	gp,gp,1
 28c:	05d00893          	li	a7,93
 290:	00018513          	mv	a0,gp
 294:	00000073          	ecall

00000298 <pass>:
 298:	0ff0000f          	fence
 29c:	00100193          	li	gp,1
 2a0:	05d00893          	li	a7,93
 2a4:	00000513          	li	a0,0
 2a8:	00000073          	ecall
 2ac:	c0001073          	unimp
