
tests/upstream/binaries/sh.elf:     file format elf32-littleriscv


Disassembly of section .text.init:

00000000 <_start>:
   0:	0400006f          	j	40 <reset_vector>

00000004 <trap_vector>:
   4:	34202f73          	csrr	t5,mcause
   8:	00b00f93          	li	t6,11
   c:	03ff0263          	beq	t5,t6,30 <write_tohost>
  10:	00000f17          	auipc	t5,0x0
  14:	ff0f0f13          	addi	t5,t5,-16 # 0 <_start>
  18:	000f0463          	beqz	t5,20 <trap_vector+0x1c>
  1c:	000f0067          	jr	t5
  20:	34202f73          	csrr	t5,mcause
  24:	000f5463          	bgez	t5,2c <handle_exception>
  28:	0040006f          	j	2c <handle_exception>

0000002c <handle_exception>:
  2c:	5391e193          	ori	gp,gp,1337

00000030 <write_tohost>:
  30:	04000f37          	lui	t5,0x4000
  34:	003f2023          	sw	gp,0(t5) # 4000000 <_end+0x3fff990>
  38:	000f2223          	sw	zero,4(t5)
  3c:	ff5ff06f          	j	30 <write_tohost>

00000040 <reset_vector>:
  40:	00000093          	li	ra,0
  44:	00000113          	li	sp,0
  48:	00000193          	li	gp,0
  4c:	00000213          	li	tp,0
  50:	00000293          	li	t0,0
  54:	00000313          	li	t1,0
  58:	00000393          	li	t2,0
  5c:	00000413          	li	s0,0
  60:	00000493          	li	s1,0
  64:	00000513          	li	a0,0
  68:	00000593          	li	a1,0
  6c:	00000613          	li	a2,0
  70:	00000693          	li	a3,0
  74:	00000713          	li	a4,0
  78:	00000793          	li	a5,0
  7c:	00000813          	li	a6,0
  80:	00000893          	li	a7,0
  84:	00000913          	li	s2,0
  88:	00000993          	li	s3,0
  8c:	00000a13          	li	s4,0
  90:	00000a93          	li	s5,0
  94:	00000b13          	li	s6,0
  98:	00000b93          	li	s7,0
  9c:	00000c13          	li	s8,0
  a0:	00000c93          	li	s9,0
  a4:	00000d13          	li	s10,0
  a8:	00000d93          	li	s11,0
  ac:	00000e13          	li	t3,0
  b0:	00000e93          	li	t4,0
  b4:	00000f13          	li	t5,0
  b8:	00000f93          	li	t6,0
  bc:	00000193          	li	gp,0
  c0:	00000297          	auipc	t0,0x0
  c4:	f4428293          	addi	t0,t0,-188 # 4 <trap_vector>
  c8:	30529073          	csrw	mtvec,t0
  cc:	00100513          	li	a0,1
  d0:	01f51513          	slli	a0,a0,0x1f
  d4:	00054c63          	bltz	a0,ec <reset_vector+0xac>
  d8:	0ff0000f          	fence
  dc:	00100193          	li	gp,1
  e0:	05d00893          	li	a7,93
  e4:	00000513          	li	a0,0
  e8:	00000073          	ecall
  ec:	30005073          	csrwi	mstatus,0
  f0:	00000297          	auipc	t0,0x0
  f4:	01428293          	addi	t0,t0,20 # 104 <test_2>
  f8:	34129073          	csrw	mepc,t0
  fc:	f1402573          	csrr	a0,mhartid
 100:	30200073          	mret

00000104 <test_2>:
 104:	00200193          	li	gp,2
 108:	65000093          	li	ra,1616
 10c:	0aa00113          	li	sp,170
 110:	00000797          	auipc	a5,0x0
 114:	01478793          	addi	a5,a5,20 # 124 <test_2+0x20>
 118:	00209023          	sh	sp,0(ra)
 11c:	00009703          	lh	a4,0(ra)
 120:	0080006f          	j	128 <test_2+0x24>
 124:	00010713          	mv	a4,sp
 128:	0aa00393          	li	t2,170
 12c:	46771863          	bne	a4,t2,59c <fail>

00000130 <test_3>:
 130:	00300193          	li	gp,3
 134:	65000093          	li	ra,1616
 138:	ffffb137          	lui	sp,0xffffb
 13c:	a0010113          	addi	sp,sp,-1536 # ffffaa00 <_end+0xffffa390>
 140:	00000797          	auipc	a5,0x0
 144:	01478793          	addi	a5,a5,20 # 154 <test_3+0x24>
 148:	00209123          	sh	sp,2(ra)
 14c:	00209703          	lh	a4,2(ra)
 150:	0080006f          	j	158 <test_3+0x28>
 154:	00010713          	mv	a4,sp
 158:	ffffb3b7          	lui	t2,0xffffb
 15c:	a0038393          	addi	t2,t2,-1536 # ffffaa00 <_end+0xffffa390>
 160:	42771e63          	bne	a4,t2,59c <fail>

00000164 <test_4>:
 164:	00400193          	li	gp,4
 168:	65000093          	li	ra,1616
 16c:	beef1137          	lui	sp,0xbeef1
 170:	aa010113          	addi	sp,sp,-1376 # beef0aa0 <_end+0xbeef0430>
 174:	00000797          	auipc	a5,0x0
 178:	01478793          	addi	a5,a5,20 # 188 <test_4+0x24>
 17c:	00209223          	sh	sp,4(ra)
 180:	0040a703          	lw	a4,4(ra)
 184:	0080006f          	j	18c <test_4+0x28>
 188:	00010713          	mv	a4,sp
 18c:	beef13b7          	lui	t2,0xbeef1
 190:	aa038393          	addi	t2,t2,-1376 # beef0aa0 <_end+0xbeef0430>
 194:	40771463          	bne	a4,t2,59c <fail>

00000198 <test_5>:
 198:	00500193          	li	gp,5
 19c:	65000093          	li	ra,1616
 1a0:	ffffa137          	lui	sp,0xffffa
 1a4:	00a10113          	addi	sp,sp,10 # ffffa00a <_end+0xffff999a>
 1a8:	00000797          	auipc	a5,0x0
 1ac:	01478793          	addi	a5,a5,20 # 1bc <test_5+0x24>
 1b0:	00209323          	sh	sp,6(ra)
 1b4:	00609703          	lh	a4,6(ra)
 1b8:	0080006f          	j	1c0 <test_5+0x28>
 1bc:	00010713          	mv	a4,sp
 1c0:	ffffa3b7          	lui	t2,0xffffa
 1c4:	00a38393          	addi	t2,t2,10 # ffffa00a <_end+0xffff999a>
 1c8:	3c771a63          	bne	a4,t2,59c <fail>

000001cc <test_6>:
 1cc:	00600193          	li	gp,6
 1d0:	65e00093          	li	ra,1630
 1d4:	0aa00113          	li	sp,170
 1d8:	00000797          	auipc	a5,0x0
 1dc:	01478793          	addi	a5,a5,20 # 1ec <test_6+0x20>
 1e0:	fe209d23          	sh	sp,-6(ra)
 1e4:	ffa09703          	lh	a4,-6(ra)
 1e8:	0080006f          	j	1f0 <test_6+0x24>
 1ec:	00010713          	mv	a4,sp
 1f0:	0aa00393          	li	t2,170
 1f4:	3a771463          	bne	a4,t2,59c <fail>

000001f8 <test_7>:
 1f8:	00700193          	li	gp,7
 1fc:	65e00093          	li	ra,1630
 200:	ffffb137          	lui	sp,0xffffb
 204:	a0010113          	addi	sp,sp,-1536 # ffffaa00 <_end+0xffffa390>
 208:	00000797          	auipc	a5,0x0
 20c:	01478793          	addi	a5,a5,20 # 21c <test_7+0x24>
 210:	fe209e23          	sh	sp,-4(ra)
 214:	ffc09703          	lh	a4,-4(ra)
 218:	0080006f          	j	220 <test_7+0x28>
 21c:	00010713          	mv	a4,sp
 220:	ffffb3b7          	lui	t2,0xffffb
 224:	a0038393          	addi	t2,t2,-1536 # ffffaa00 <_end+0xffffa390>
 228:	36771a63          	bne	a4,t2,59c <fail>

0000022c <test_8>:
 22c:	00800193          	li	gp,8
 230:	65e00093          	li	ra,1630
 234:	00001137          	lui	sp,0x1
 238:	aa010113          	addi	sp,sp,-1376 # aa0 <_end+0x430>
 23c:	00000797          	auipc	a5,0x0
 240:	01478793          	addi	a5,a5,20 # 250 <test_8+0x24>
 244:	fe209f23          	sh	sp,-2(ra)
 248:	ffe09703          	lh	a4,-2(ra)
 24c:	0080006f          	j	254 <test_8+0x28>
 250:	00010713          	mv	a4,sp
 254:	000013b7          	lui	t2,0x1
 258:	aa038393          	addi	t2,t2,-1376 # aa0 <_end+0x430>
 25c:	34771063          	bne	a4,t2,59c <fail>

00000260 <test_9>:
 260:	00900193          	li	gp,9
 264:	65e00093          	li	ra,1630
 268:	ffffa137          	lui	sp,0xffffa
 26c:	00a10113          	addi	sp,sp,10 # ffffa00a <_end+0xffff999a>
 270:	00000797          	auipc	a5,0x0
 274:	01478793          	addi	a5,a5,20 # 284 <test_9+0x24>
 278:	00209023          	sh	sp,0(ra)
 27c:	00009703          	lh	a4,0(ra)
 280:	0080006f          	j	288 <test_9+0x28>
 284:	00010713          	mv	a4,sp
 288:	ffffa3b7          	lui	t2,0xffffa
 28c:	00a38393          	addi	t2,t2,10 # ffffa00a <_end+0xffff999a>
 290:	30771663          	bne	a4,t2,59c <fail>

00000294 <test_10>:
 294:	00a00193          	li	gp,10
 298:	66000093          	li	ra,1632
 29c:	12345137          	lui	sp,0x12345
 2a0:	67810113          	addi	sp,sp,1656 # 12345678 <_end+0x12345008>
 2a4:	fe008213          	addi	tp,ra,-32
 2a8:	02221023          	sh	sp,32(tp) # 20 <trap_vector+0x1c>
 2ac:	00009283          	lh	t0,0(ra)
 2b0:	000053b7          	lui	t2,0x5
 2b4:	67838393          	addi	t2,t2,1656 # 5678 <_end+0x5008>
 2b8:	2e729263          	bne	t0,t2,59c <fail>

000002bc <test_11>:
 2bc:	00b00193          	li	gp,11
 2c0:	66000093          	li	ra,1632
 2c4:	00003137          	lui	sp,0x3
 2c8:	09810113          	addi	sp,sp,152 # 3098 <_end+0x2a28>
 2cc:	ffb08093          	addi	ra,ra,-5
 2d0:	002093a3          	sh	sp,7(ra)
 2d4:	66200213          	li	tp,1634
 2d8:	00021283          	lh	t0,0(tp) # 0 <_start>
 2dc:	000033b7          	lui	t2,0x3
 2e0:	09838393          	addi	t2,t2,152 # 3098 <_end+0x2a28>
 2e4:	2a729c63          	bne	t0,t2,59c <fail>

000002e8 <test_12>:
 2e8:	00c00193          	li	gp,12
 2ec:	00000213          	li	tp,0
 2f0:	ffffd0b7          	lui	ra,0xffffd
 2f4:	cdd08093          	addi	ra,ra,-803 # ffffccdd <_end+0xffffc66d>
 2f8:	65000113          	li	sp,1616
 2fc:	00111023          	sh	ra,0(sp)
 300:	00011703          	lh	a4,0(sp)
 304:	ffffd3b7          	lui	t2,0xffffd
 308:	cdd38393          	addi	t2,t2,-803 # ffffccdd <_end+0xffffc66d>
 30c:	28771863          	bne	a4,t2,59c <fail>
 310:	00120213          	addi	tp,tp,1 # 1 <_start+0x1>
 314:	00200293          	li	t0,2
 318:	fc521ce3          	bne	tp,t0,2f0 <test_12+0x8>

0000031c <test_13>:
 31c:	00d00193          	li	gp,13
 320:	00000213          	li	tp,0
 324:	ffffc0b7          	lui	ra,0xffffc
 328:	ccd08093          	addi	ra,ra,-819 # ffffbccd <_end+0xffffb65d>
 32c:	65000113          	li	sp,1616
 330:	00000013          	nop
 334:	00111123          	sh	ra,2(sp)
 338:	00211703          	lh	a4,2(sp)
 33c:	ffffc3b7          	lui	t2,0xffffc
 340:	ccd38393          	addi	t2,t2,-819 # ffffbccd <_end+0xffffb65d>
 344:	24771c63          	bne	a4,t2,59c <fail>
 348:	00120213          	addi	tp,tp,1 # 1 <_start+0x1>
 34c:	00200293          	li	t0,2
 350:	fc521ae3          	bne	tp,t0,324 <test_13+0x8>

00000354 <test_14>:
 354:	00e00193          	li	gp,14
 358:	00000213          	li	tp,0
 35c:	ffffc0b7          	lui	ra,0xffffc
 360:	bcc08093          	addi	ra,ra,-1076 # ffffbbcc <_end+0xffffb55c>
 364:	65000113          	li	sp,1616
 368:	00000013          	nop
 36c:	00000013          	nop
 370:	00111223          	sh	ra,4(sp)
 374:	00411703          	lh	a4,4(sp)
 378:	ffffc3b7          	lui	t2,0xffffc
 37c:	bcc38393          	addi	t2,t2,-1076 # ffffbbcc <_end+0xffffb55c>
 380:	20771e63          	bne	a4,t2,59c <fail>
 384:	00120213          	addi	tp,tp,1 # 1 <_start+0x1>
 388:	00200293          	li	t0,2
 38c:	fc5218e3          	bne	tp,t0,35c <test_14+0x8>

00000390 <test_15>:
 390:	00f00193          	li	gp,15
 394:	00000213          	li	tp,0
 398:	ffffb0b7          	lui	ra,0xffffb
 39c:	bbc08093          	addi	ra,ra,-1092 # ffffabbc <_end+0xffffa54c>
 3a0:	00000013          	nop
 3a4:	65000113          	li	sp,1616
 3a8:	00111323          	sh	ra,6(sp)
 3ac:	00611703          	lh	a4,6(sp)
 3b0:	ffffb3b7          	lui	t2,0xffffb
 3b4:	bbc38393          	addi	t2,t2,-1092 # ffffabbc <_end+0xffffa54c>
 3b8:	1e771263          	bne	a4,t2,59c <fail>
 3bc:	00120213          	addi	tp,tp,1 # 1 <_start+0x1>
 3c0:	00200293          	li	t0,2
 3c4:	fc521ae3          	bne	tp,t0,398 <test_15+0x8>

000003c8 <test_16>:
 3c8:	01000193          	li	gp,16
 3cc:	00000213          	li	tp,0
 3d0:	ffffb0b7          	lui	ra,0xffffb
 3d4:	abb08093          	addi	ra,ra,-1349 # ffffaabb <_end+0xffffa44b>
 3d8:	00000013          	nop
 3dc:	65000113          	li	sp,1616
 3e0:	00000013          	nop
 3e4:	00111423          	sh	ra,8(sp)
 3e8:	00811703          	lh	a4,8(sp)
 3ec:	ffffb3b7          	lui	t2,0xffffb
 3f0:	abb38393          	addi	t2,t2,-1349 # ffffaabb <_end+0xffffa44b>
 3f4:	1a771463          	bne	a4,t2,59c <fail>
 3f8:	00120213          	addi	tp,tp,1 # 1 <_start+0x1>
 3fc:	00200293          	li	t0,2
 400:	fc5218e3          	bne	tp,t0,3d0 <test_16+0x8>

00000404 <test_17>:
 404:	01100193          	li	gp,17
 408:	00000213          	li	tp,0
 40c:	ffffe0b7          	lui	ra,0xffffe
 410:	aab08093          	addi	ra,ra,-1365 # ffffdaab <_end+0xffffd43b>
 414:	00000013          	nop
 418:	00000013          	nop
 41c:	65000113          	li	sp,1616
 420:	00111523          	sh	ra,10(sp)
 424:	00a11703          	lh	a4,10(sp)
 428:	ffffe3b7          	lui	t2,0xffffe
 42c:	aab38393          	addi	t2,t2,-1365 # ffffdaab <_end+0xffffd43b>
 430:	16771663          	bne	a4,t2,59c <fail>
 434:	00120213          	addi	tp,tp,1 # 1 <_start+0x1>
 438:	00200293          	li	t0,2
 43c:	fc5218e3          	bne	tp,t0,40c <test_17+0x8>

00000440 <test_18>:
 440:	01200193          	li	gp,18
 444:	00000213          	li	tp,0
 448:	65000113          	li	sp,1616
 44c:	000020b7          	lui	ra,0x2
 450:	23308093          	addi	ra,ra,563 # 2233 <_end+0x1bc3>
 454:	00111023          	sh	ra,0(sp)
 458:	00011703          	lh	a4,0(sp)
 45c:	000023b7          	lui	t2,0x2
 460:	23338393          	addi	t2,t2,563 # 2233 <_end+0x1bc3>
 464:	12771c63          	bne	a4,t2,59c <fail>
 468:	00120213          	addi	tp,tp,1 # 1 <_start+0x1>
 46c:	00200293          	li	t0,2
 470:	fc521ce3          	bne	tp,t0,448 <test_18+0x8>

00000474 <test_19>:
 474:	01300193          	li	gp,19
 478:	00000213          	li	tp,0
 47c:	65000113          	li	sp,1616
 480:	000010b7          	lui	ra,0x1
 484:	22308093          	addi	ra,ra,547 # 1223 <_end+0xbb3>
 488:	00000013          	nop
 48c:	00111123          	sh	ra,2(sp)
 490:	00211703          	lh	a4,2(sp)
 494:	000013b7          	lui	t2,0x1
 498:	22338393          	addi	t2,t2,547 # 1223 <_end+0xbb3>
 49c:	10771063          	bne	a4,t2,59c <fail>
 4a0:	00120213          	addi	tp,tp,1 # 1 <_start+0x1>
 4a4:	00200293          	li	t0,2
 4a8:	fc521ae3          	bne	tp,t0,47c <test_19+0x8>

000004ac <test_20>:
 4ac:	01400193          	li	gp,20
 4b0:	00000213          	li	tp,0
 4b4:	65000113          	li	sp,1616
 4b8:	000010b7          	lui	ra,0x1
 4bc:	12208093          	addi	ra,ra,290 # 1122 <_end+0xab2>
 4c0:	00000013          	nop
 4c4:	00000013          	nop
 4c8:	00111223          	sh	ra,4(sp)
 4cc:	00411703          	lh	a4,4(sp)
 4d0:	000013b7          	lui	t2,0x1
 4d4:	12238393          	addi	t2,t2,290 # 1122 <_end+0xab2>
 4d8:	0c771263          	bne	a4,t2,59c <fail>
 4dc:	00120213          	addi	tp,tp,1 # 1 <_start+0x1>
 4e0:	00200293          	li	t0,2
 4e4:	fc5218e3          	bne	tp,t0,4b4 <test_20+0x8>

000004e8 <test_21>:
 4e8:	01500193          	li	gp,21
 4ec:	00000213          	li	tp,0
 4f0:	65000113          	li	sp,1616
 4f4:	00000013          	nop
 4f8:	11200093          	li	ra,274
 4fc:	00111323          	sh	ra,6(sp)
 500:	00611703          	lh	a4,6(sp)
 504:	11200393          	li	t2,274
 508:	08771a63          	bne	a4,t2,59c <fail>
 50c:	00120213          	addi	tp,tp,1 # 1 <_start+0x1>
 510:	00200293          	li	t0,2
 514:	fc521ee3          	bne	tp,t0,4f0 <test_21+0x8>

00000518 <test_22>:
 518:	01600193          	li	gp,22
 51c:	00000213          	li	tp,0
 520:	65000113          	li	sp,1616
 524:	00000013          	nop
 528:	01100093          	li	ra,17
 52c:	00000013          	nop
 530:	00111423          	sh	ra,8(sp)
 534:	00811703          	lh	a4,8(sp)
 538:	01100393          	li	t2,17
 53c:	06771063          	bne	a4,t2,59c <fail>
 540:	00120213          	addi	tp,tp,1 # 1 <_start+0x1>
 544:	00200293          	li	t0,2
 548:	fc521ce3          	bne	tp,t0,520 <test_22+0x8>

0000054c <test_23>:
 54c:	01700193          	li	gp,23
 550:	00000213          	li	tp,0
 554:	65000113          	li	sp,1616
 558:	00000013          	nop
 55c:	00000013          	nop
 560:	000030b7          	lui	ra,0x3
 564:	00108093          	addi	ra,ra,1 # 3001 <_end+0x2991>
 568:	00111523          	sh	ra,10(sp)
 56c:	00a11703          	lh	a4,10(sp)
 570:	000033b7          	lui	t2,0x3
 574:	00138393          	addi	t2,t2,1 # 3001 <_end+0x2991>
 578:	02771263          	bne	a4,t2,59c <fail>
 57c:	00120213          	addi	tp,tp,1 # 1 <_start+0x1>
 580:	00200293          	li	t0,2
 584:	fc5218e3          	bne	tp,t0,554 <test_23+0x8>
 588:	0000c537          	lui	a0,0xc
 58c:	eef50513          	addi	a0,a0,-273 # beef <_end+0xb87f>
 590:	65000593          	li	a1,1616
 594:	00a59323          	sh	a0,6(a1)
 598:	02301063          	bne	zero,gp,5b8 <pass>

0000059c <fail>:
 59c:	0ff0000f          	fence
 5a0:	00018063          	beqz	gp,5a0 <fail+0x4>
 5a4:	00119193          	slli	gp,gp,0x1
 5a8:	0011e193          	ori	gp,gp,1
 5ac:	05d00893          	li	a7,93
 5b0:	00018513          	mv	a0,gp
 5b4:	00000073          	ecall

000005b8 <pass>:
 5b8:	0ff0000f          	fence
 5bc:	00100193          	li	gp,1
 5c0:	05d00893          	li	a7,93
 5c4:	00000513          	li	a0,0
 5c8:	00000073          	ecall
 5cc:	c0001073          	unimp
 5d0:	0000                	unimp
 5d2:	0000                	unimp
 5d4:	0000                	unimp
 5d6:	0000                	unimp
 5d8:	0000                	unimp
 5da:	0000                	unimp
 5dc:	0000                	unimp
 5de:	0000                	unimp
 5e0:	0000                	unimp
 5e2:	0000                	unimp

Disassembly of section .data:

00000650 <begin_signature>:
 650:	          	jal	t4,ffffba3e <_end+0xffffb3ce>

00000652 <tdat2>:
 652:	          	jal	t4,ffffba40 <_end+0xffffb3d0>

00000654 <tdat3>:
 654:	          	jal	t4,ffffba42 <_end+0xffffb3d2>

00000656 <tdat4>:
 656:	          	jal	t4,ffffba44 <_end+0xffffb3d4>

00000658 <tdat5>:
 658:	          	jal	t4,ffffba46 <_end+0xffffb3d6>

0000065a <tdat6>:
 65a:	          	jal	t4,ffffba48 <_end+0xffffb3d8>

0000065c <tdat7>:
 65c:	          	jal	t4,ffffba4a <_end+0xffffb3da>

0000065e <tdat8>:
 65e:	          	jal	t4,ffffba4c <_end+0xffffb3dc>

00000660 <tdat9>:
 660:	          	jal	t4,ffffba4e <_end+0xffffb3de>

00000662 <tdat10>:
 662:	0000beef          	jal	t4,b662 <_end+0xaff2>
 666:	0000                	unimp
 668:	0000                	unimp
 66a:	0000                	unimp
 66c:	0000                	unimp
 66e:	0000                	unimp
