
tests/upstream/binaries/slli.elf:     file format elf32-littleriscv


Disassembly of section .text.init:

00000000 <_start>:
   0:	00000093          	li	ra,0
   4:	00000113          	li	sp,0
   8:	00000193          	li	gp,0
   c:	00000213          	li	tp,0
  10:	00000293          	li	t0,0
  14:	00000313          	li	t1,0
  18:	00000393          	li	t2,0
  1c:	00000413          	li	s0,0
  20:	00000493          	li	s1,0
  24:	00000513          	li	a0,0
  28:	00000593          	li	a1,0
  2c:	00000613          	li	a2,0
  30:	00000693          	li	a3,0
  34:	00000713          	li	a4,0
  38:	00000793          	li	a5,0
  3c:	00000813          	li	a6,0
  40:	00000893          	li	a7,0
  44:	00000913          	li	s2,0
  48:	00000993          	li	s3,0
  4c:	00000a13          	li	s4,0
  50:	00000a93          	li	s5,0
  54:	00000b13          	li	s6,0
  58:	00000b93          	li	s7,0
  5c:	00000c13          	li	s8,0
  60:	00000c93          	li	s9,0
  64:	00000d13          	li	s10,0
  68:	00000d93          	li	s11,0
  6c:	00000e13          	li	t3,0
  70:	00000e93          	li	t4,0
  74:	00000f13          	li	t5,0
  78:	00000f93          	li	t6,0
  7c:	00000193          	li	gp,0
  80:	00100513          	li	a0,1
  84:	01f51513          	slli	a0,a0,0x1f
  88:	00054c63          	bltz	a0,a0 <test_2>
  8c:	0ff0000f          	fence
  90:	00100193          	li	gp,1
  94:	05d00893          	li	a7,93
  98:	00000513          	li	a0,0
  9c:	00000073          	ecall

000000a0 <test_2>:
  a0:	00200193          	li	gp,2
  a4:	00100093          	li	ra,1
  a8:	00009713          	slli	a4,ra,0x0
  ac:	00100393          	li	t2,1
  b0:	26771a63          	bne	a4,t2,324 <fail>

000000b4 <test_3>:
  b4:	00300193          	li	gp,3
  b8:	00100093          	li	ra,1
  bc:	00109713          	slli	a4,ra,0x1
  c0:	00200393          	li	t2,2
  c4:	26771063          	bne	a4,t2,324 <fail>

000000c8 <test_4>:
  c8:	00400193          	li	gp,4
  cc:	00100093          	li	ra,1
  d0:	00709713          	slli	a4,ra,0x7
  d4:	08000393          	li	t2,128
  d8:	24771663          	bne	a4,t2,324 <fail>

000000dc <test_5>:
  dc:	00500193          	li	gp,5
  e0:	00100093          	li	ra,1
  e4:	00e09713          	slli	a4,ra,0xe
  e8:	000043b7          	lui	t2,0x4
  ec:	22771c63          	bne	a4,t2,324 <fail>

000000f0 <test_6>:
  f0:	00600193          	li	gp,6
  f4:	00100093          	li	ra,1
  f8:	01f09713          	slli	a4,ra,0x1f
  fc:	800003b7          	lui	t2,0x80000
 100:	22771263          	bne	a4,t2,324 <fail>

00000104 <test_7>:
 104:	00700193          	li	gp,7
 108:	fff00093          	li	ra,-1
 10c:	00009713          	slli	a4,ra,0x0
 110:	fff00393          	li	t2,-1
 114:	20771863          	bne	a4,t2,324 <fail>

00000118 <test_8>:
 118:	00800193          	li	gp,8
 11c:	fff00093          	li	ra,-1
 120:	00109713          	slli	a4,ra,0x1
 124:	ffe00393          	li	t2,-2
 128:	1e771e63          	bne	a4,t2,324 <fail>

0000012c <test_9>:
 12c:	00900193          	li	gp,9
 130:	fff00093          	li	ra,-1
 134:	00709713          	slli	a4,ra,0x7
 138:	f8000393          	li	t2,-128
 13c:	1e771463          	bne	a4,t2,324 <fail>

00000140 <test_10>:
 140:	00a00193          	li	gp,10
 144:	fff00093          	li	ra,-1
 148:	00e09713          	slli	a4,ra,0xe
 14c:	ffffc3b7          	lui	t2,0xffffc
 150:	1c771a63          	bne	a4,t2,324 <fail>

00000154 <test_11>:
 154:	00b00193          	li	gp,11
 158:	fff00093          	li	ra,-1
 15c:	01f09713          	slli	a4,ra,0x1f
 160:	800003b7          	lui	t2,0x80000
 164:	1c771063          	bne	a4,t2,324 <fail>

00000168 <test_12>:
 168:	00c00193          	li	gp,12
 16c:	212120b7          	lui	ra,0x21212
 170:	12108093          	addi	ra,ra,289 # 21212121 <_end+0x21211d51>
 174:	00009713          	slli	a4,ra,0x0
 178:	212123b7          	lui	t2,0x21212
 17c:	12138393          	addi	t2,t2,289 # 21212121 <_end+0x21211d51>
 180:	1a771263          	bne	a4,t2,324 <fail>

00000184 <test_13>:
 184:	00d00193          	li	gp,13
 188:	212120b7          	lui	ra,0x21212
 18c:	12108093          	addi	ra,ra,289 # 21212121 <_end+0x21211d51>
 190:	00109713          	slli	a4,ra,0x1
 194:	424243b7          	lui	t2,0x42424
 198:	24238393          	addi	t2,t2,578 # 42424242 <_end+0x42423e72>
 19c:	18771463          	bne	a4,t2,324 <fail>

000001a0 <test_14>:
 1a0:	00e00193          	li	gp,14
 1a4:	212120b7          	lui	ra,0x21212
 1a8:	12108093          	addi	ra,ra,289 # 21212121 <_end+0x21211d51>
 1ac:	00709713          	slli	a4,ra,0x7
 1b0:	909093b7          	lui	t2,0x90909
 1b4:	08038393          	addi	t2,t2,128 # 90909080 <_end+0x90908cb0>
 1b8:	16771663          	bne	a4,t2,324 <fail>

000001bc <test_15>:
 1bc:	00f00193          	li	gp,15
 1c0:	212120b7          	lui	ra,0x21212
 1c4:	12108093          	addi	ra,ra,289 # 21212121 <_end+0x21211d51>
 1c8:	00e09713          	slli	a4,ra,0xe
 1cc:	484843b7          	lui	t2,0x48484
 1d0:	14771a63          	bne	a4,t2,324 <fail>

000001d4 <test_16>:
 1d4:	01000193          	li	gp,16
 1d8:	212120b7          	lui	ra,0x21212
 1dc:	12108093          	addi	ra,ra,289 # 21212121 <_end+0x21211d51>
 1e0:	01f09713          	slli	a4,ra,0x1f
 1e4:	800003b7          	lui	t2,0x80000
 1e8:	12771e63          	bne	a4,t2,324 <fail>

000001ec <test_17>:
 1ec:	01100193          	li	gp,17
 1f0:	00100093          	li	ra,1
 1f4:	00709093          	slli	ra,ra,0x7
 1f8:	08000393          	li	t2,128
 1fc:	12709463          	bne	ra,t2,324 <fail>

00000200 <test_18>:
 200:	01200193          	li	gp,18
 204:	00000213          	li	tp,0
 208:	00100093          	li	ra,1
 20c:	00709713          	slli	a4,ra,0x7
 210:	00070313          	mv	t1,a4
 214:	00120213          	addi	tp,tp,1 # 1 <_start+0x1>
 218:	00200293          	li	t0,2
 21c:	fe5216e3          	bne	tp,t0,208 <test_18+0x8>
 220:	08000393          	li	t2,128
 224:	10731063          	bne	t1,t2,324 <fail>

00000228 <test_19>:
 228:	01300193          	li	gp,19
 22c:	00000213          	li	tp,0
 230:	00100093          	li	ra,1
 234:	00e09713          	slli	a4,ra,0xe
 238:	00000013          	nop
 23c:	00070313          	mv	t1,a4
 240:	00120213          	addi	tp,tp,1 # 1 <_start+0x1>
 244:	00200293          	li	t0,2
 248:	fe5214e3          	bne	tp,t0,230 <test_19+0x8>
 24c:	000043b7          	lui	t2,0x4
 250:	0c731a63          	bne	t1,t2,324 <fail>

00000254 <test_20>:
 254:	01400193          	li	gp,20
 258:	00000213          	li	tp,0
 25c:	00100093          	li	ra,1
 260:	01f09713          	slli	a4,ra,0x1f
 264:	00000013          	nop
 268:	00000013          	nop
 26c:	00070313          	mv	t1,a4
 270:	00120213          	addi	tp,tp,1 # 1 <_start+0x1>
 274:	00200293          	li	t0,2
 278:	fe5212e3          	bne	tp,t0,25c <test_20+0x8>
 27c:	800003b7          	lui	t2,0x80000
 280:	0a731263          	bne	t1,t2,324 <fail>

00000284 <test_21>:
 284:	01500193          	li	gp,21
 288:	00000213          	li	tp,0
 28c:	00100093          	li	ra,1
 290:	00709713          	slli	a4,ra,0x7
 294:	00120213          	addi	tp,tp,1 # 1 <_start+0x1>
 298:	00200293          	li	t0,2
 29c:	fe5218e3          	bne	tp,t0,28c <test_21+0x8>
 2a0:	08000393          	li	t2,128
 2a4:	08771063          	bne	a4,t2,324 <fail>

000002a8 <test_22>:
 2a8:	01600193          	li	gp,22
 2ac:	00000213          	li	tp,0
 2b0:	00100093          	li	ra,1
 2b4:	00000013          	nop
 2b8:	00e09713          	slli	a4,ra,0xe
 2bc:	00120213          	addi	tp,tp,1 # 1 <_start+0x1>
 2c0:	00200293          	li	t0,2
 2c4:	fe5216e3          	bne	tp,t0,2b0 <test_22+0x8>
 2c8:	000043b7          	lui	t2,0x4
 2cc:	04771c63          	bne	a4,t2,324 <fail>

000002d0 <test_23>:
 2d0:	01700193          	li	gp,23
 2d4:	00000213          	li	tp,0
 2d8:	00100093          	li	ra,1
 2dc:	00000013          	nop
 2e0:	00000013          	nop
 2e4:	01f09713          	slli	a4,ra,0x1f
 2e8:	00120213          	addi	tp,tp,1 # 1 <_start+0x1>
 2ec:	00200293          	li	t0,2
 2f0:	fe5214e3          	bne	tp,t0,2d8 <test_23+0x8>
 2f4:	800003b7          	lui	t2,0x80000
 2f8:	02771663          	bne	a4,t2,324 <fail>

000002fc <test_24>:
 2fc:	01800193          	li	gp,24
 300:	01f01093          	slli	ra,zero,0x1f
 304:	00000393          	li	t2,0
 308:	00709e63          	bne	ra,t2,324 <fail>

0000030c <test_25>:
 30c:	01900193          	li	gp,25
 310:	02100093          	li	ra,33
 314:	01409013          	slli	zero,ra,0x14
 318:	00000393          	li	t2,0
 31c:	00701463          	bne	zero,t2,324 <fail>
 320:	02301063          	bne	zero,gp,340 <pass>

00000324 <fail>:
 324:	0ff0000f          	fence
 328:	00018063          	beqz	gp,328 <fail+0x4>
 32c:	00119193          	slli	gp,gp,0x1
 330:	0011e193          	ori	gp,gp,1
 334:	05d00893          	li	a7,93
 338:	00018513          	mv	a0,gp
 33c:	00000073          	ecall

00000340 <pass>:
 340:	0ff0000f          	fence
 344:	00100193          	li	gp,1
 348:	05d00893          	li	a7,93
 34c:	00000513          	li	a0,0
 350:	00000073          	ecall
 354:	c0001073          	unimp
