
tests/upstream/binaries/srai.elf:     file format elf32-littleriscv


Disassembly of section .text.init:

00000000 <_start>:
   0:	00000093          	li	ra,0
   4:	00000113          	li	sp,0
   8:	00000193          	li	gp,0
   c:	00000213          	li	tp,0
  10:	00000293          	li	t0,0
  14:	00000313          	li	t1,0
  18:	00000393          	li	t2,0
  1c:	00000413          	li	s0,0
  20:	00000493          	li	s1,0
  24:	00000513          	li	a0,0
  28:	00000593          	li	a1,0
  2c:	00000613          	li	a2,0
  30:	00000693          	li	a3,0
  34:	00000713          	li	a4,0
  38:	00000793          	li	a5,0
  3c:	00000813          	li	a6,0
  40:	00000893          	li	a7,0
  44:	00000913          	li	s2,0
  48:	00000993          	li	s3,0
  4c:	00000a13          	li	s4,0
  50:	00000a93          	li	s5,0
  54:	00000b13          	li	s6,0
  58:	00000b93          	li	s7,0
  5c:	00000c13          	li	s8,0
  60:	00000c93          	li	s9,0
  64:	00000d13          	li	s10,0
  68:	00000d93          	li	s11,0
  6c:	00000e13          	li	t3,0
  70:	00000e93          	li	t4,0
  74:	00000f13          	li	t5,0
  78:	00000f93          	li	t6,0
  7c:	00000193          	li	gp,0
  80:	00100513          	li	a0,1
  84:	01f51513          	slli	a0,a0,0x1f
  88:	00054c63          	bltz	a0,a0 <test_2>
  8c:	0ff0000f          	fence
  90:	00100193          	li	gp,1
  94:	05d00893          	li	a7,93
  98:	00000513          	li	a0,0
  9c:	00000073          	ecall

000000a0 <test_2>:
  a0:	00200193          	li	gp,2
  a4:	00000093          	li	ra,0
  a8:	4000d713          	srai	a4,ra,0x0
  ac:	00000393          	li	t2,0
  b0:	2a771463          	bne	a4,t2,358 <fail>

000000b4 <test_3>:
  b4:	00300193          	li	gp,3
  b8:	800000b7          	lui	ra,0x80000
  bc:	4010d713          	srai	a4,ra,0x1
  c0:	c00003b7          	lui	t2,0xc0000
  c4:	28771a63          	bne	a4,t2,358 <fail>

000000c8 <test_4>:
  c8:	00400193          	li	gp,4
  cc:	800000b7          	lui	ra,0x80000
  d0:	4070d713          	srai	a4,ra,0x7
  d4:	ff0003b7          	lui	t2,0xff000
  d8:	28771063          	bne	a4,t2,358 <fail>

000000dc <test_5>:
  dc:	00500193          	li	gp,5
  e0:	800000b7          	lui	ra,0x80000
  e4:	40e0d713          	srai	a4,ra,0xe
  e8:	fffe03b7          	lui	t2,0xfffe0
  ec:	26771663          	bne	a4,t2,358 <fail>

000000f0 <test_6>:
  f0:	00600193          	li	gp,6
  f4:	800000b7          	lui	ra,0x80000
  f8:	00108093          	addi	ra,ra,1 # 80000001 <_end+0x7ffffbf1>
  fc:	41f0d713          	srai	a4,ra,0x1f
 100:	fff00393          	li	t2,-1
 104:	24771a63          	bne	a4,t2,358 <fail>

00000108 <test_7>:
 108:	00700193          	li	gp,7
 10c:	800000b7          	lui	ra,0x80000
 110:	fff08093          	addi	ra,ra,-1 # 7fffffff <_end+0x7ffffbef>
 114:	4000d713          	srai	a4,ra,0x0
 118:	800003b7          	lui	t2,0x80000
 11c:	fff38393          	addi	t2,t2,-1 # 7fffffff <_end+0x7ffffbef>
 120:	22771c63          	bne	a4,t2,358 <fail>

00000124 <test_8>:
 124:	00800193          	li	gp,8
 128:	800000b7          	lui	ra,0x80000
 12c:	fff08093          	addi	ra,ra,-1 # 7fffffff <_end+0x7ffffbef>
 130:	4010d713          	srai	a4,ra,0x1
 134:	400003b7          	lui	t2,0x40000
 138:	fff38393          	addi	t2,t2,-1 # 3fffffff <_end+0x3ffffbef>
 13c:	20771e63          	bne	a4,t2,358 <fail>

00000140 <test_9>:
 140:	00900193          	li	gp,9
 144:	800000b7          	lui	ra,0x80000
 148:	fff08093          	addi	ra,ra,-1 # 7fffffff <_end+0x7ffffbef>
 14c:	4070d713          	srai	a4,ra,0x7
 150:	010003b7          	lui	t2,0x1000
 154:	fff38393          	addi	t2,t2,-1 # ffffff <_end+0xfffbef>
 158:	20771063          	bne	a4,t2,358 <fail>

0000015c <test_10>:
 15c:	00a00193          	li	gp,10
 160:	800000b7          	lui	ra,0x80000
 164:	fff08093          	addi	ra,ra,-1 # 7fffffff <_end+0x7ffffbef>
 168:	40e0d713          	srai	a4,ra,0xe
 16c:	000203b7          	lui	t2,0x20
 170:	fff38393          	addi	t2,t2,-1 # 1ffff <_end+0x1fbef>
 174:	1e771263          	bne	a4,t2,358 <fail>

00000178 <test_11>:
 178:	00b00193          	li	gp,11
 17c:	800000b7          	lui	ra,0x80000
 180:	fff08093          	addi	ra,ra,-1 # 7fffffff <_end+0x7ffffbef>
 184:	41f0d713          	srai	a4,ra,0x1f
 188:	00000393          	li	t2,0
 18c:	1c771663          	bne	a4,t2,358 <fail>

00000190 <test_12>:
 190:	00c00193          	li	gp,12
 194:	818180b7          	lui	ra,0x81818
 198:	18108093          	addi	ra,ra,385 # 81818181 <_end+0x81817d71>
 19c:	4000d713          	srai	a4,ra,0x0
 1a0:	818183b7          	lui	t2,0x81818
 1a4:	18138393          	addi	t2,t2,385 # 81818181 <_end+0x81817d71>
 1a8:	1a771863          	bne	a4,t2,358 <fail>

000001ac <test_13>:
 1ac:	00d00193          	li	gp,13
 1b0:	818180b7          	lui	ra,0x81818
 1b4:	18108093          	addi	ra,ra,385 # 81818181 <_end+0x81817d71>
 1b8:	4010d713          	srai	a4,ra,0x1
 1bc:	c0c0c3b7          	lui	t2,0xc0c0c
 1c0:	0c038393          	addi	t2,t2,192 # c0c0c0c0 <_end+0xc0c0bcb0>
 1c4:	18771a63          	bne	a4,t2,358 <fail>

000001c8 <test_14>:
 1c8:	00e00193          	li	gp,14
 1cc:	818180b7          	lui	ra,0x81818
 1d0:	18108093          	addi	ra,ra,385 # 81818181 <_end+0x81817d71>
 1d4:	4070d713          	srai	a4,ra,0x7
 1d8:	ff0303b7          	lui	t2,0xff030
 1dc:	30338393          	addi	t2,t2,771 # ff030303 <_end+0xff02fef3>
 1e0:	16771c63          	bne	a4,t2,358 <fail>

000001e4 <test_15>:
 1e4:	00f00193          	li	gp,15
 1e8:	818180b7          	lui	ra,0x81818
 1ec:	18108093          	addi	ra,ra,385 # 81818181 <_end+0x81817d71>
 1f0:	40e0d713          	srai	a4,ra,0xe
 1f4:	fffe03b7          	lui	t2,0xfffe0
 1f8:	60638393          	addi	t2,t2,1542 # fffe0606 <_end+0xfffe01f6>
 1fc:	14771e63          	bne	a4,t2,358 <fail>

00000200 <test_16>:
 200:	01000193          	li	gp,16
 204:	818180b7          	lui	ra,0x81818
 208:	18108093          	addi	ra,ra,385 # 81818181 <_end+0x81817d71>
 20c:	41f0d713          	srai	a4,ra,0x1f
 210:	fff00393          	li	t2,-1
 214:	14771263          	bne	a4,t2,358 <fail>

00000218 <test_17>:
 218:	01100193          	li	gp,17
 21c:	800000b7          	lui	ra,0x80000
 220:	4070d093          	srai	ra,ra,0x7
 224:	ff0003b7          	lui	t2,0xff000
 228:	12709863          	bne	ra,t2,358 <fail>

0000022c <test_18>:
 22c:	01200193          	li	gp,18
 230:	00000213          	li	tp,0
 234:	800000b7          	lui	ra,0x80000
 238:	4070d713          	srai	a4,ra,0x7
 23c:	00070313          	mv	t1,a4
 240:	00120213          	addi	tp,tp,1 # 1 <_start+0x1>
 244:	00200293          	li	t0,2
 248:	fe5216e3          	bne	tp,t0,234 <test_18+0x8>
 24c:	ff0003b7          	lui	t2,0xff000
 250:	10731463          	bne	t1,t2,358 <fail>

00000254 <test_19>:
 254:	01300193          	li	gp,19
 258:	00000213          	li	tp,0
 25c:	800000b7          	lui	ra,0x80000
 260:	40e0d713          	srai	a4,ra,0xe
 264:	00000013          	nop
 268:	00070313          	mv	t1,a4
 26c:	00120213          	addi	tp,tp,1 # 1 <_start+0x1>
 270:	00200293          	li	t0,2
 274:	fe5214e3          	bne	tp,t0,25c <test_19+0x8>
 278:	fffe03b7          	lui	t2,0xfffe0
 27c:	0c731e63          	bne	t1,t2,358 <fail>

00000280 <test_20>:
 280:	01400193          	li	gp,20
 284:	00000213          	li	tp,0
 288:	800000b7          	lui	ra,0x80000
 28c:	00108093          	addi	ra,ra,1 # 80000001 <_end+0x7ffffbf1>
 290:	41f0d713          	srai	a4,ra,0x1f
 294:	00000013          	nop
 298:	00000013          	nop
 29c:	00070313          	mv	t1,a4
 2a0:	00120213          	addi	tp,tp,1 # 1 <_start+0x1>
 2a4:	00200293          	li	t0,2
 2a8:	fe5210e3          	bne	tp,t0,288 <test_20+0x8>
 2ac:	fff00393          	li	t2,-1
 2b0:	0a731463          	bne	t1,t2,358 <fail>

000002b4 <test_21>:
 2b4:	01500193          	li	gp,21
 2b8:	00000213          	li	tp,0
 2bc:	800000b7          	lui	ra,0x80000
 2c0:	4070d713          	srai	a4,ra,0x7
 2c4:	00120213          	addi	tp,tp,1 # 1 <_start+0x1>
 2c8:	00200293          	li	t0,2
 2cc:	fe5218e3          	bne	tp,t0,2bc <test_21+0x8>
 2d0:	ff0003b7          	lui	t2,0xff000
 2d4:	08771263          	bne	a4,t2,358 <fail>

000002d8 <test_22>:
 2d8:	01600193          	li	gp,22
 2dc:	00000213          	li	tp,0
 2e0:	800000b7          	lui	ra,0x80000
 2e4:	00000013          	nop
 2e8:	40e0d713          	srai	a4,ra,0xe
 2ec:	00120213          	addi	tp,tp,1 # 1 <_start+0x1>
 2f0:	00200293          	li	t0,2
 2f4:	fe5216e3          	bne	tp,t0,2e0 <test_22+0x8>
 2f8:	fffe03b7          	lui	t2,0xfffe0
 2fc:	04771e63          	bne	a4,t2,358 <fail>

00000300 <test_23>:
 300:	01700193          	li	gp,23
 304:	00000213          	li	tp,0
 308:	800000b7          	lui	ra,0x80000
 30c:	00108093          	addi	ra,ra,1 # 80000001 <_end+0x7ffffbf1>
 310:	00000013          	nop
 314:	00000013          	nop
 318:	41f0d713          	srai	a4,ra,0x1f
 31c:	00120213          	addi	tp,tp,1 # 1 <_start+0x1>
 320:	00200293          	li	t0,2
 324:	fe5212e3          	bne	tp,t0,308 <test_23+0x8>
 328:	fff00393          	li	t2,-1
 32c:	02771663          	bne	a4,t2,358 <fail>

00000330 <test_24>:
 330:	01800193          	li	gp,24
 334:	40405093          	srai	ra,zero,0x4
 338:	00000393          	li	t2,0
 33c:	00709e63          	bne	ra,t2,358 <fail>

00000340 <test_25>:
 340:	01900193          	li	gp,25
 344:	02100093          	li	ra,33
 348:	40a0d013          	srai	zero,ra,0xa
 34c:	00000393          	li	t2,0
 350:	00701463          	bne	zero,t2,358 <fail>
 354:	02301063          	bne	zero,gp,374 <pass>

00000358 <fail>:
 358:	0ff0000f          	fence
 35c:	00018063          	beqz	gp,35c <fail+0x4>
 360:	00119193          	slli	gp,gp,0x1
 364:	0011e193          	ori	gp,gp,1
 368:	05d00893          	li	a7,93
 36c:	00018513          	mv	a0,gp
 370:	00000073          	ecall

00000374 <pass>:
 374:	0ff0000f          	fence
 378:	00100193          	li	gp,1
 37c:	05d00893          	li	a7,93
 380:	00000513          	li	a0,0
 384:	00000073          	ecall
 388:	c0001073          	unimp
