
tests/upstream/binaries/srli.elf:     file format elf32-littleriscv


Disassembly of section .text.init:

00000000 <_start>:
   0:	00000093          	li	ra,0
   4:	00000113          	li	sp,0
   8:	00000193          	li	gp,0
   c:	00000213          	li	tp,0
  10:	00000293          	li	t0,0
  14:	00000313          	li	t1,0
  18:	00000393          	li	t2,0
  1c:	00000413          	li	s0,0
  20:	00000493          	li	s1,0
  24:	00000513          	li	a0,0
  28:	00000593          	li	a1,0
  2c:	00000613          	li	a2,0
  30:	00000693          	li	a3,0
  34:	00000713          	li	a4,0
  38:	00000793          	li	a5,0
  3c:	00000813          	li	a6,0
  40:	00000893          	li	a7,0
  44:	00000913          	li	s2,0
  48:	00000993          	li	s3,0
  4c:	00000a13          	li	s4,0
  50:	00000a93          	li	s5,0
  54:	00000b13          	li	s6,0
  58:	00000b93          	li	s7,0
  5c:	00000c13          	li	s8,0
  60:	00000c93          	li	s9,0
  64:	00000d13          	li	s10,0
  68:	00000d93          	li	s11,0
  6c:	00000e13          	li	t3,0
  70:	00000e93          	li	t4,0
  74:	00000f13          	li	t5,0
  78:	00000f93          	li	t6,0
  7c:	00000193          	li	gp,0
  80:	00100513          	li	a0,1
  84:	01f51513          	slli	a0,a0,0x1f
  88:	00054c63          	bltz	a0,a0 <test_2>
  8c:	0ff0000f          	fence
  90:	00100193          	li	gp,1
  94:	05d00893          	li	a7,93
  98:	00000513          	li	a0,0
  9c:	00000073          	ecall

000000a0 <test_2>:
  a0:	00200193          	li	gp,2
  a4:	800000b7          	lui	ra,0x80000
  a8:	0000d713          	srli	a4,ra,0x0
  ac:	800003b7          	lui	t2,0x80000
  b0:	28771863          	bne	a4,t2,340 <fail>

000000b4 <test_3>:
  b4:	00300193          	li	gp,3
  b8:	800000b7          	lui	ra,0x80000
  bc:	0010d713          	srli	a4,ra,0x1
  c0:	400003b7          	lui	t2,0x40000
  c4:	26771e63          	bne	a4,t2,340 <fail>

000000c8 <test_4>:
  c8:	00400193          	li	gp,4
  cc:	800000b7          	lui	ra,0x80000
  d0:	0070d713          	srli	a4,ra,0x7
  d4:	010003b7          	lui	t2,0x1000
  d8:	26771463          	bne	a4,t2,340 <fail>

000000dc <test_5>:
  dc:	00500193          	li	gp,5
  e0:	800000b7          	lui	ra,0x80000
  e4:	00e0d713          	srli	a4,ra,0xe
  e8:	000203b7          	lui	t2,0x20
  ec:	24771a63          	bne	a4,t2,340 <fail>

000000f0 <test_6>:
  f0:	00600193          	li	gp,6
  f4:	800000b7          	lui	ra,0x80000
  f8:	00108093          	addi	ra,ra,1 # 80000001 <_end+0x7ffffc31>
  fc:	01f0d713          	srli	a4,ra,0x1f
 100:	00100393          	li	t2,1
 104:	22771e63          	bne	a4,t2,340 <fail>

00000108 <test_7>:
 108:	00700193          	li	gp,7
 10c:	fff00093          	li	ra,-1
 110:	0000d713          	srli	a4,ra,0x0
 114:	fff00393          	li	t2,-1
 118:	22771463          	bne	a4,t2,340 <fail>

0000011c <test_8>:
 11c:	00800193          	li	gp,8
 120:	fff00093          	li	ra,-1
 124:	0010d713          	srli	a4,ra,0x1
 128:	800003b7          	lui	t2,0x80000
 12c:	fff38393          	addi	t2,t2,-1 # 7fffffff <_end+0x7ffffc2f>
 130:	20771863          	bne	a4,t2,340 <fail>

00000134 <test_9>:
 134:	00900193          	li	gp,9
 138:	fff00093          	li	ra,-1
 13c:	0070d713          	srli	a4,ra,0x7
 140:	020003b7          	lui	t2,0x2000
 144:	fff38393          	addi	t2,t2,-1 # 1ffffff <_end+0x1fffc2f>
 148:	1e771c63          	bne	a4,t2,340 <fail>

0000014c <test_10>:
 14c:	00a00193          	li	gp,10
 150:	fff00093          	li	ra,-1
 154:	00e0d713          	srli	a4,ra,0xe
 158:	000403b7          	lui	t2,0x40
 15c:	fff38393          	addi	t2,t2,-1 # 3ffff <_end+0x3fc2f>
 160:	1e771063          	bne	a4,t2,340 <fail>

00000164 <test_11>:
 164:	00b00193          	li	gp,11
 168:	fff00093          	li	ra,-1
 16c:	01f0d713          	srli	a4,ra,0x1f
 170:	00100393          	li	t2,1
 174:	1c771663          	bne	a4,t2,340 <fail>

00000178 <test_12>:
 178:	00c00193          	li	gp,12
 17c:	212120b7          	lui	ra,0x21212
 180:	12108093          	addi	ra,ra,289 # 21212121 <_end+0x21211d51>
 184:	0000d713          	srli	a4,ra,0x0
 188:	212123b7          	lui	t2,0x21212
 18c:	12138393          	addi	t2,t2,289 # 21212121 <_end+0x21211d51>
 190:	1a771863          	bne	a4,t2,340 <fail>

00000194 <test_13>:
 194:	00d00193          	li	gp,13
 198:	212120b7          	lui	ra,0x21212
 19c:	12108093          	addi	ra,ra,289 # 21212121 <_end+0x21211d51>
 1a0:	0010d713          	srli	a4,ra,0x1
 1a4:	109093b7          	lui	t2,0x10909
 1a8:	09038393          	addi	t2,t2,144 # 10909090 <_end+0x10908cc0>
 1ac:	18771a63          	bne	a4,t2,340 <fail>

000001b0 <test_14>:
 1b0:	00e00193          	li	gp,14
 1b4:	212120b7          	lui	ra,0x21212
 1b8:	12108093          	addi	ra,ra,289 # 21212121 <_end+0x21211d51>
 1bc:	0070d713          	srli	a4,ra,0x7
 1c0:	004243b7          	lui	t2,0x424
 1c4:	24238393          	addi	t2,t2,578 # 424242 <_end+0x423e72>
 1c8:	16771c63          	bne	a4,t2,340 <fail>

000001cc <test_15>:
 1cc:	00f00193          	li	gp,15
 1d0:	212120b7          	lui	ra,0x21212
 1d4:	12108093          	addi	ra,ra,289 # 21212121 <_end+0x21211d51>
 1d8:	00e0d713          	srli	a4,ra,0xe
 1dc:	000083b7          	lui	t2,0x8
 1e0:	48438393          	addi	t2,t2,1156 # 8484 <_end+0x80b4>
 1e4:	14771e63          	bne	a4,t2,340 <fail>

000001e8 <test_16>:
 1e8:	01000193          	li	gp,16
 1ec:	212120b7          	lui	ra,0x21212
 1f0:	12108093          	addi	ra,ra,289 # 21212121 <_end+0x21211d51>
 1f4:	01f0d713          	srli	a4,ra,0x1f
 1f8:	00000393          	li	t2,0
 1fc:	14771263          	bne	a4,t2,340 <fail>

00000200 <test_17>:
 200:	01100193          	li	gp,17
 204:	800000b7          	lui	ra,0x80000
 208:	0070d093          	srli	ra,ra,0x7
 20c:	010003b7          	lui	t2,0x1000
 210:	12709863          	bne	ra,t2,340 <fail>

00000214 <test_18>:
 214:	01200193          	li	gp,18
 218:	00000213          	li	tp,0
 21c:	800000b7          	lui	ra,0x80000
 220:	0070d713          	srli	a4,ra,0x7
 224:	00070313          	mv	t1,a4
 228:	00120213          	addi	tp,tp,1 # 1 <_start+0x1>
 22c:	00200293          	li	t0,2
 230:	fe5216e3          	bne	tp,t0,21c <test_18+0x8>
 234:	010003b7          	lui	t2,0x1000
 238:	10731463          	bne	t1,t2,340 <fail>

0000023c <test_19>:
 23c:	01300193          	li	gp,19
 240:	00000213          	li	tp,0
 244:	800000b7          	lui	ra,0x80000
 248:	00e0d713          	srli	a4,ra,0xe
 24c:	00000013          	nop
 250:	00070313          	mv	t1,a4
 254:	00120213          	addi	tp,tp,1 # 1 <_start+0x1>
 258:	00200293          	li	t0,2
 25c:	fe5214e3          	bne	tp,t0,244 <test_19+0x8>
 260:	000203b7          	lui	t2,0x20
 264:	0c731e63          	bne	t1,t2,340 <fail>

00000268 <test_20>:
 268:	01400193          	li	gp,20
 26c:	00000213          	li	tp,0
 270:	800000b7          	lui	ra,0x80000
 274:	00108093          	addi	ra,ra,1 # 80000001 <_end+0x7ffffc31>
 278:	01f0d713          	srli	a4,ra,0x1f
 27c:	00000013          	nop
 280:	00000013          	nop
 284:	00070313          	mv	t1,a4
 288:	00120213          	addi	tp,tp,1 # 1 <_start+0x1>
 28c:	00200293          	li	t0,2
 290:	fe5210e3          	bne	tp,t0,270 <test_20+0x8>
 294:	00100393          	li	t2,1
 298:	0a731463          	bne	t1,t2,340 <fail>

0000029c <test_21>:
 29c:	01500193          	li	gp,21
 2a0:	00000213          	li	tp,0
 2a4:	800000b7          	lui	ra,0x80000
 2a8:	0070d713          	srli	a4,ra,0x7
 2ac:	00120213          	addi	tp,tp,1 # 1 <_start+0x1>
 2b0:	00200293          	li	t0,2
 2b4:	fe5218e3          	bne	tp,t0,2a4 <test_21+0x8>
 2b8:	010003b7          	lui	t2,0x1000
 2bc:	08771263          	bne	a4,t2,340 <fail>

000002c0 <test_22>:
 2c0:	01600193          	li	gp,22
 2c4:	00000213          	li	tp,0
 2c8:	800000b7          	lui	ra,0x80000
 2cc:	00000013          	nop
 2d0:	00e0d713          	srli	a4,ra,0xe
 2d4:	00120213          	addi	tp,tp,1 # 1 <_start+0x1>
 2d8:	00200293          	li	t0,2
 2dc:	fe5216e3          	bne	tp,t0,2c8 <test_22+0x8>
 2e0:	000203b7          	lui	t2,0x20
 2e4:	04771e63          	bne	a4,t2,340 <fail>

000002e8 <test_23>:
 2e8:	01700193          	li	gp,23
 2ec:	00000213          	li	tp,0
 2f0:	800000b7          	lui	ra,0x80000
 2f4:	00108093          	addi	ra,ra,1 # 80000001 <_end+0x7ffffc31>
 2f8:	00000013          	nop
 2fc:	00000013          	nop
 300:	01f0d713          	srli	a4,ra,0x1f
 304:	00120213          	addi	tp,tp,1 # 1 <_start+0x1>
 308:	00200293          	li	t0,2
 30c:	fe5212e3          	bne	tp,t0,2f0 <test_23+0x8>
 310:	00100393          	li	t2,1
 314:	02771663          	bne	a4,t2,340 <fail>

00000318 <test_24>:
 318:	01800193          	li	gp,24
 31c:	00405093          	srli	ra,zero,0x4
 320:	00000393          	li	t2,0
 324:	00709e63          	bne	ra,t2,340 <fail>

00000328 <test_25>:
 328:	01900193          	li	gp,25
 32c:	02100093          	li	ra,33
 330:	00a0d013          	srli	zero,ra,0xa
 334:	00000393          	li	t2,0
 338:	00701463          	bne	zero,t2,340 <fail>
 33c:	02301063          	bne	zero,gp,35c <pass>

00000340 <fail>:
 340:	0ff0000f          	fence
 344:	00018063          	beqz	gp,344 <fail+0x4>
 348:	00119193          	slli	gp,gp,0x1
 34c:	0011e193          	ori	gp,gp,1
 350:	05d00893          	li	a7,93
 354:	00018513          	mv	a0,gp
 358:	00000073          	ecall

0000035c <pass>:
 35c:	0ff0000f          	fence
 360:	00100193          	li	gp,1
 364:	05d00893          	li	a7,93
 368:	00000513          	li	a0,0
 36c:	00000073          	ecall
 370:	c0001073          	unimp
